ARM GAS  C:\Users\shevi\AppData\Local\Temp\ccUXjnPr.s 			page 1


   1              		.syntax unified
   2              		.cpu cortex-m3
   3              		.fpu softvfp
   4              		.eabi_attribute 20, 1
   5              		.eabi_attribute 21, 1
   6              		.eabi_attribute 23, 3
   7              		.eabi_attribute 24, 1
   8              		.eabi_attribute 25, 1
   9              		.eabi_attribute 26, 1
  10              		.eabi_attribute 30, 6
  11              		.eabi_attribute 34, 1
  12              		.eabi_attribute 18, 4
  13              		.thumb
  14              		.file	"main.c"
  15              		.text
  16              	.Ltext0:
  17              		.cfi_sections	.debug_frame
  18              		.comm	buffer,10,4
  19              		.section	.rodata
  20              		.align	2
  21              	.LC0:
  22 0000 46696C74 		.ascii	"Filter: %i\000"
  22      65723A20 
  22      256900
  23 000b 00       		.align	2
  24              	.LC1:
  25 000c 68656C6C 		.ascii	"hello\000"
  25      6F00
  26              		.section	.text.filterVDAC,"ax",%progbits
  27              		.align	2
  28              		.global	filterVDAC
  29              		.thumb
  30              		.thumb_func
  31              		.type	filterVDAC, %function
  32              	filterVDAC:
  33              	.LFB63:
  34              		.file 1 "main.c"
   1:main.c        **** /*******************************************************************************
   2:main.c        **** * File Name: main.c
   3:main.c        **** *
   4:main.c        **** * Version: 1.10
   5:main.c        **** *
   6:main.c        **** ********************************************************************************
   7:main.c        **** * Copyright 2012, Cypress Semiconductor Corporation. All rights reserved.
   8:main.c        **** * This software is owned by Cypress Semiconductor Corporation and is protected
   9:main.c        **** * by and subject to worldwide patent and copyright laws and treaties.
  10:main.c        **** * Therefore, you may use this software only as provided in the license agreement
  11:main.c        **** * accompanying the software package from which you obtained this software.
  12:main.c        **** * CYPRESS AND ITS SUPPLIERS MAKE NO WARRANTY OF ANY KIND, EXPRESS OR IMPLIED,
  13:main.c        **** * WITH REGARD TO THIS SOFTWARE, INCLUDING, BUT NOT LIMITED TO, NONINFRINGEMENT,
  14:main.c        **** * IMPLIED WARRANTIES OF MERCHANTABILITY AND FITNESS FOR A PARTICULAR PURPOSE.
  15:main.c        **** *******************************************************************************/
  16:main.c        **** 
  17:main.c        **** #include <project.h>
  18:main.c        **** 
  19:main.c        **** 
  20:main.c        **** #define REQUEST_PER_BURST        (1u)
ARM GAS  C:\Users\shevi\AppData\Local\Temp\ccUXjnPr.s 			page 2


  21:main.c        **** #define BYTES_PER_BURST          (1u)
  22:main.c        **** #define UPPER_SRC_ADDRESS        CYDEV_PERIPH_BASE
  23:main.c        **** #define UPPER_DEST_ADDRESS       CYDEV_PERIPH_BASE
  24:main.c        **** 
  25:main.c        **** void DMA_Config(void);
  26:main.c        **** 
  27:main.c        **** char buffer[10];
  28:main.c        **** /*******************************************************************************
  29:main.c        **** * Interrupt
  30:main.c        **** ********************************************************************************
  31:main.c        **** * Interrupt generated on Filter sample-ready. Interrupt handle:filterVDAC
  32:main.c        **** *
  33:main.c        **** * Summary:
  34:main.c        **** *  The interrupt performs following functions:
  35:main.c        **** *   1: Reads the left-justified register for Filter Channel A
  36:main.c        **** *   2: Converts it into an unsigned value
  37:main.c        **** *   3: Writes this value to VDAC
  38:main.c        **** *
  39:main.c        **** *******************************************************************************/
  40:main.c        **** CY_ISR(filterVDAC)
  41:main.c        **** {
  35              		.loc 1 41 0
  36              		.cfi_startproc
  37              		@ args = 0, pretend = 0, frame = 0
  38              		@ frame_needed = 1, uses_anonymous_args = 0
  39 0000 80B5     		push	{r7, lr}
  40              		.cfi_def_cfa_offset 8
  41              		.cfi_offset 7, -8
  42              		.cfi_offset 14, -4
  43 0002 00AF     		add	r7, sp, #0
  44              		.cfi_def_cfa_register 7
  42:main.c        ****     /* Convert the 2's complement value to an unsigned 8-bit value
  43:main.c        ****      * The VDAC expects an unsigned 8-bit value as input.
  44:main.c        ****      */
  45:main.c        ****     sprintf(buffer,"Filter: %i",Filter_Read8(Filter_CHANNEL_A));
  45              		.loc 1 45 0
  46 0004 0020     		movs	r0, #0
  47 0006 FFF7FEFF 		bl	Filter_Read8
  48 000a 0346     		mov	r3, r0
  49 000c 0448     		ldr	r0, .L2
  50 000e 0549     		ldr	r1, .L2+4
  51 0010 1A46     		mov	r2, r3
  52 0012 FFF7FEFF 		bl	sprintf
  46:main.c        **** 	UART_1_PutString("hello");
  53              		.loc 1 46 0
  54 0016 0448     		ldr	r0, .L2+8
  55 0018 FFF7FEFF 		bl	UART_1_PutString
  47:main.c        **** }
  56              		.loc 1 47 0
  57 001c 80BD     		pop	{r7, pc}
  58              	.L3:
  59 001e 00BF     		.align	2
  60              	.L2:
  61 0020 00000000 		.word	buffer
  62 0024 00000000 		.word	.LC0
  63 0028 0C000000 		.word	.LC1
  64              		.cfi_endproc
ARM GAS  C:\Users\shevi\AppData\Local\Temp\ccUXjnPr.s 			page 3


  65              	.LFE63:
  66              		.size	filterVDAC, .-filterVDAC
  67              		.section	.rodata
  68 0012 0000     		.align	2
  69              	.LC2:
  70 0014 46696C74 		.ascii	"Filter: %i\012\000"
  70      65723A20 
  70      25690A00 
  71              		.section	.text.main,"ax",%progbits
  72              		.align	2
  73              		.global	main
  74              		.thumb
  75              		.thumb_func
  76              		.type	main, %function
  77              	main:
  78              	.LFB64:
  48:main.c        **** 
  49:main.c        **** 
  50:main.c        **** /*******************************************************************************
  51:main.c        **** * Function Name: main
  52:main.c        **** ********************************************************************************
  53:main.c        **** *
  54:main.c        **** * Summary:
  55:main.c        **** *  Main function performs following functions:
  56:main.c        **** *   1: Enables global interrupts
  57:main.c        **** *   2: Start all components on the schematic
  58:main.c        **** *   3: Calls a function to configure DMA
  59:main.c        **** 
  60:main.c        **** * Parameters:
  61:main.c        **** *  None.
  62:main.c        **** *
  63:main.c        **** * Return:
  64:main.c        **** *  None.
  65:main.c        **** *
  66:main.c        **** *******************************************************************************/
  67:main.c        **** int main()
  68:main.c        **** {
  79              		.loc 1 68 0
  80              		.cfi_startproc
  81              		@ args = 0, pretend = 0, frame = 0
  82              		@ frame_needed = 1, uses_anonymous_args = 0
  83 0000 80B5     		push	{r7, lr}
  84              		.cfi_def_cfa_offset 8
  85              		.cfi_offset 7, -8
  86              		.cfi_offset 14, -4
  87 0002 00AF     		add	r7, sp, #0
  88              		.cfi_def_cfa_register 7
  69:main.c        ****     /* Start all components used on schematic */
  70:main.c        ****     UART_1_Start();
  89              		.loc 1 70 0
  90 0004 FFF7FEFF 		bl	UART_1_Start
  71:main.c        ****     ADC_DelSig_IRQ_Start();
  91              		.loc 1 71 0
  92 0008 FFF7FEFF 		bl	ADC_DelSig_IRQ_Start
  72:main.c        ****     isr_StartEx(filterVDAC);
  93              		.loc 1 72 0
  94 000c 0B48     		ldr	r0, .L6
ARM GAS  C:\Users\shevi\AppData\Local\Temp\ccUXjnPr.s 			page 4


  95 000e FFF7FEFF 		bl	isr_StartEx
  73:main.c        ****     
  74:main.c        ****     ADC_DelSig_StartConvert();
  96              		.loc 1 74 0
  97 0012 FFF7FEFF 		bl	ADC_DelSig_StartConvert
  75:main.c        ****     
  76:main.c        ****     Opamp_Start();
  98              		.loc 1 76 0
  99 0016 FFF7FEFF 		bl	Opamp_Start
  77:main.c        ****     Filter_Start();
 100              		.loc 1 77 0
 101 001a FFF7FEFF 		bl	Filter_Start
  78:main.c        **** 
  79:main.c        ****     /* User-implemented function to set-up DMA */
  80:main.c        ****     DMA_Config();
 102              		.loc 1 80 0
 103 001e FFF7FEFF 		bl	DMA_Config
  81:main.c        **** 
  82:main.c        ****     /* Enable Global Interrupts */
  83:main.c        ****     CYGlobalIntEnable;
 104              		.loc 1 83 0
 105              	@ 83 "main.c" 1
 106 0022 62B6     		CPSIE   i
 107              	@ 0 "" 2
 108              		.thumb
 109              	.L5:
 110              	.LBB2:
  84:main.c        **** 
  85:main.c        ****     for(;;)
  86:main.c        ****     {
  87:main.c        ****         sprintf(buffer,"Filter: %i\n",ADC_DelSig_GetResult8);
 111              		.loc 1 87 0 discriminator 1
 112 0024 0648     		ldr	r0, .L6+4
 113 0026 0749     		ldr	r1, .L6+8
 114 0028 074A     		ldr	r2, .L6+12
 115 002a FFF7FEFF 		bl	sprintf
  88:main.c        **** 	    UART_1_PutString(buffer);
 116              		.loc 1 88 0 discriminator 1
 117 002e 0448     		ldr	r0, .L6+4
 118 0030 FFF7FEFF 		bl	UART_1_PutString
  89:main.c        ****         CyDelay(100);
 119              		.loc 1 89 0 discriminator 1
 120 0034 6420     		movs	r0, #100
 121 0036 FFF7FEFF 		bl	CyDelay
 122              	.LBE2:
  90:main.c        ****     }
 123              		.loc 1 90 0 discriminator 1
 124 003a F3E7     		b	.L5
 125              	.L7:
 126              		.align	2
 127              	.L6:
 128 003c 00000000 		.word	filterVDAC
 129 0040 00000000 		.word	buffer
 130 0044 14000000 		.word	.LC2
 131 0048 00000000 		.word	ADC_DelSig_GetResult8
 132              		.cfi_endproc
 133              	.LFE64:
ARM GAS  C:\Users\shevi\AppData\Local\Temp\ccUXjnPr.s 			page 5


 134              		.size	main, .-main
 135              		.section	.text.DMA_Config,"ax",%progbits
 136              		.align	2
 137              		.global	DMA_Config
 138              		.thumb
 139              		.thumb_func
 140              		.type	DMA_Config, %function
 141              	DMA_Config:
 142              	.LFB65:
  91:main.c        **** } /* End of main */
  92:main.c        **** 
  93:main.c        **** 
  94:main.c        **** /*******************************************************************************
  95:main.c        **** * Function Name: DMA_Config
  96:main.c        **** ********************************************************************************
  97:main.c        **** *
  98:main.c        **** * Summary:
  99:main.c        **** *  Initializes and sets up DMA for use (generated by DMA Wizard)
 100:main.c        **** *
 101:main.c        **** * Parameters:
 102:main.c        **** *  None.
 103:main.c        **** *
 104:main.c        **** * Return:
 105:main.c        **** *  None.
 106:main.c        **** *
 107:main.c        **** *******************************************************************************/
 108:main.c        **** void DMA_Config(void)
 109:main.c        **** {
 143              		.loc 1 109 0
 144              		.cfi_startproc
 145              		@ args = 0, pretend = 0, frame = 8
 146              		@ frame_needed = 1, uses_anonymous_args = 0
 147 0000 80B5     		push	{r7, lr}
 148              		.cfi_def_cfa_offset 8
 149              		.cfi_offset 7, -8
 150              		.cfi_offset 14, -4
 151 0002 82B0     		sub	sp, sp, #8
 152              		.cfi_def_cfa_offset 16
 153 0004 00AF     		add	r7, sp, #0
 154              		.cfi_def_cfa_register 7
 110:main.c        ****     /* Declare variable to hold the handle for DMA channel */
 111:main.c        ****     uint8 channelHandle;
 112:main.c        **** 
 113:main.c        ****     /* Declare DMA Transaction Descriptor for memory transfer into
 114:main.c        ****      * Filter Channel.
 115:main.c        ****      */
 116:main.c        ****     uint8 tdChanA;
 117:main.c        **** 
 118:main.c        ****     /* Configure the DMA to Transfer the data in 1 burst with individual trigger
 119:main.c        ****      * for each burst.
 120:main.c        ****      */
 121:main.c        ****     channelHandle = DMA_DmaInitialize(BYTES_PER_BURST, REQUEST_PER_BURST,
 155              		.loc 1 121 0
 156 0006 0120     		movs	r0, #1
 157 0008 0121     		movs	r1, #1
 158 000a 4FF48042 		mov	r2, #16384
 159 000e 4FF48043 		mov	r3, #16384
ARM GAS  C:\Users\shevi\AppData\Local\Temp\ccUXjnPr.s 			page 6


 160 0012 FFF7FEFF 		bl	DMA_DmaInitialize
 161 0016 0346     		mov	r3, r0
 162 0018 FB71     		strb	r3, [r7, #7]
 122:main.c        ****                                         HI16(UPPER_SRC_ADDRESS), HI16(UPPER_DEST_ADDRESS));
 123:main.c        **** 
 124:main.c        ****     /* This function allocates a TD for use with an initialized DMA channel */
 125:main.c        ****     tdChanA = CyDmaTdAllocate();
 163              		.loc 1 125 0
 164 001a FFF7FEFF 		bl	CyDmaTdAllocate
 165 001e 0346     		mov	r3, r0
 166 0020 BB71     		strb	r3, [r7, #6]
 126:main.c        **** 
 127:main.c        ****     /* Configure the tdChanA to transfer 1 byte with no next TD */
 128:main.c        ****     CyDmaTdSetConfiguration(tdChanA, 1u, DMA_INVALID_TD, 0u);
 167              		.loc 1 128 0
 168 0022 BB79     		ldrb	r3, [r7, #6]	@ zero_extendqisi2
 169 0024 1846     		mov	r0, r3
 170 0026 0121     		movs	r1, #1
 171 0028 FF22     		movs	r2, #255
 172 002a 0023     		movs	r3, #0
 173 002c FFF7FEFF 		bl	CyDmaTdSetConfiguration
 129:main.c        **** 
 130:main.c        ****     /* Set the source address as ADC_DelSig and the destination as
 131:main.c        ****      * Filter Channel A.
 132:main.c        ****      */
 133:main.c        ****     CyDmaTdSetAddress(tdChanA, LO16((uint32)ADC_DelSig_DEC_SAMP_PTR), LO16((uint32)Filter_STAGEAH_P
 174              		.loc 1 133 0
 175 0030 BB79     		ldrb	r3, [r7, #6]	@ zero_extendqisi2
 176 0032 1846     		mov	r0, r3
 177 0034 44F61061 		movw	r1, #19984
 178 0038 4CF2A272 		movw	r2, #51106
 179 003c FFF7FEFF 		bl	CyDmaTdSetAddress
 134:main.c        **** 
 135:main.c        ****     /* Set tdChanA to be the initial TD associated with channelHandle */
 136:main.c        ****     CyDmaChSetInitialTd(channelHandle, tdChanA);
 180              		.loc 1 136 0
 181 0040 FA79     		ldrb	r2, [r7, #7]	@ zero_extendqisi2
 182 0042 BB79     		ldrb	r3, [r7, #6]	@ zero_extendqisi2
 183 0044 1046     		mov	r0, r2
 184 0046 1946     		mov	r1, r3
 185 0048 FFF7FEFF 		bl	CyDmaChSetInitialTd
 137:main.c        **** 
 138:main.c        ****     /* Enable the DMA channel represented by channelHandle and preserve the TD */
 139:main.c        ****     CyDmaChEnable(channelHandle, 1u);
 186              		.loc 1 139 0
 187 004c FB79     		ldrb	r3, [r7, #7]	@ zero_extendqisi2
 188 004e 1846     		mov	r0, r3
 189 0050 0121     		movs	r1, #1
 190 0052 FFF7FEFF 		bl	CyDmaChEnable
 140:main.c        **** }
 191              		.loc 1 140 0
 192 0056 0837     		adds	r7, r7, #8
 193              		.cfi_def_cfa_offset 8
 194 0058 BD46     		mov	sp, r7
 195              		.cfi_def_cfa_register 13
 196              		@ sp needed
 197 005a 80BD     		pop	{r7, pc}
ARM GAS  C:\Users\shevi\AppData\Local\Temp\ccUXjnPr.s 			page 7


 198              		.cfi_endproc
 199              	.LFE65:
 200              		.size	DMA_Config, .-DMA_Config
 201              		.text
 202              	.Letext0:
 203              		.file 2 "c:\\program files (x86)\\cypress\\psoc creator\\4.0\\psoc creator\\import\\gnu\\arm\\4.9.
 204              		.file 3 "c:\\program files (x86)\\cypress\\psoc creator\\4.0\\psoc creator\\import\\gnu\\arm\\4.9.
 205              		.file 4 "Generated_Source\\PSoC5/cytypes.h"
 206              		.file 5 "<built-in>"
 207              		.file 6 "Generated_Source\\PSoC5/core_cm3.h"