ARM GAS  C:\Users\shevi\AppData\Local\Temp\ccGYxJFF.s 			page 1


   1              		.syntax unified
   2              		.cpu cortex-m3
   3              		.fpu softvfp
   4              		.eabi_attribute 20, 1
   5              		.eabi_attribute 21, 1
   6              		.eabi_attribute 23, 3
   7              		.eabi_attribute 24, 1
   8              		.eabi_attribute 25, 1
   9              		.eabi_attribute 26, 1
  10              		.eabi_attribute 30, 6
  11              		.eabi_attribute 34, 1
  12              		.eabi_attribute 18, 4
  13              		.thumb
  14              		.syntax unified
  15              		.file	"IntQueueTimer.c"
  16              		.text
  17              	.Ltext0:
  18              		.cfi_sections	.debug_frame
  19              		.section	.text.vInitialiseTimerForIntQueueTest,"ax",%progbits
  20              		.align	2
  21              		.global	vInitialiseTimerForIntQueueTest
  22              		.thumb
  23              		.thumb_func
  24              		.type	vInitialiseTimerForIntQueueTest, %function
  25              	vInitialiseTimerForIntQueueTest:
  26              	.LFB68:
  27              		.file 1 "IntQueueTimer.c"
   1:IntQueueTimer.c **** /*
   2:IntQueueTimer.c ****  * FreeRTOS Kernel V10.0.1
   3:IntQueueTimer.c ****  * Copyright (C) 2017 Amazon.com, Inc. or its affiliates.  All Rights Reserved.
   4:IntQueueTimer.c ****  *
   5:IntQueueTimer.c ****  * Permission is hereby granted, free of charge, to any person obtaining a copy of
   6:IntQueueTimer.c ****  * this software and associated documentation files (the "Software"), to deal in
   7:IntQueueTimer.c ****  * the Software without restriction, including without limitation the rights to
   8:IntQueueTimer.c ****  * use, copy, modify, merge, publish, distribute, sublicense, and/or sell copies of
   9:IntQueueTimer.c ****  * the Software, and to permit persons to whom the Software is furnished to do so,
  10:IntQueueTimer.c ****  * subject to the following conditions:
  11:IntQueueTimer.c ****  *
  12:IntQueueTimer.c ****  * The above copyright notice and this permission notice shall be included in all
  13:IntQueueTimer.c ****  * copies or substantial portions of the Software.
  14:IntQueueTimer.c ****  *
  15:IntQueueTimer.c ****  * THE SOFTWARE IS PROVIDED "AS IS", WITHOUT WARRANTY OF ANY KIND, EXPRESS OR
  16:IntQueueTimer.c ****  * IMPLIED, INCLUDING BUT NOT LIMITED TO THE WARRANTIES OF MERCHANTABILITY, FITNESS
  17:IntQueueTimer.c ****  * FOR A PARTICULAR PURPOSE AND NONINFRINGEMENT. IN NO EVENT SHALL THE AUTHORS OR
  18:IntQueueTimer.c ****  * COPYRIGHT HOLDERS BE LIABLE FOR ANY CLAIM, DAMAGES OR OTHER LIABILITY, WHETHER
  19:IntQueueTimer.c ****  * IN AN ACTION OF CONTRACT, TORT OR OTHERWISE, ARISING FROM, OUT OF OR IN
  20:IntQueueTimer.c ****  * CONNECTION WITH THE SOFTWARE OR THE USE OR OTHER DEALINGS IN THE SOFTWARE.
  21:IntQueueTimer.c ****  *
  22:IntQueueTimer.c ****  * http://www.FreeRTOS.org
  23:IntQueueTimer.c ****  * http://aws.amazon.com/freertos
  24:IntQueueTimer.c ****  *
  25:IntQueueTimer.c ****  * 1 tab == 4 spaces!
  26:IntQueueTimer.c ****  */
  27:IntQueueTimer.c **** 
  28:IntQueueTimer.c **** #include <device.h>
  29:IntQueueTimer.c **** #include "FreeRTOS.h"
  30:IntQueueTimer.c **** #include "task.h"
ARM GAS  C:\Users\shevi\AppData\Local\Temp\ccGYxJFF.s 			page 2


  31:IntQueueTimer.c **** /*---------------------------------------------------------------------------*/
  32:IntQueueTimer.c **** 
  33:IntQueueTimer.c **** extern portBASE_TYPE xFirstTimerHandler( void );
  34:IntQueueTimer.c **** extern portBASE_TYPE xSecondTimerHandler( void );
  35:IntQueueTimer.c **** /*---------------------------------------------------------------------------*/
  36:IntQueueTimer.c **** 
  37:IntQueueTimer.c **** CY_ISR_PROTO( vHighFrequencyFirstISR );
  38:IntQueueTimer.c **** CY_ISR_PROTO( vHighFrequencySecondISR );
  39:IntQueueTimer.c **** /*---------------------------------------------------------------------------*/
  40:IntQueueTimer.c **** 
  41:IntQueueTimer.c **** /**
  42:IntQueueTimer.c ****  * Installs and starts the ISRs that drive the Interupt Queue Tests.
  43:IntQueueTimer.c ****  */
  44:IntQueueTimer.c **** void vInitialiseTimerForIntQueueTest( void )
  45:IntQueueTimer.c **** {
  28              		.loc 1 45 0
  29              		.cfi_startproc
  30              		@ args = 0, pretend = 0, frame = 0
  31              		@ frame_needed = 1, uses_anonymous_args = 0
  32 0000 80B5     		push	{r7, lr}
  33              		.cfi_def_cfa_offset 8
  34              		.cfi_offset 7, -8
  35              		.cfi_offset 14, -4
  36 0002 00AF     		add	r7, sp, #0
  37              		.cfi_def_cfa_register 7
  46:IntQueueTimer.c **** 	taskENTER_CRITICAL();
  38              		.loc 1 46 0
  39 0004 FFF7FEFF 		bl	vPortEnterCritical
  40              	.LBB2:
  47:IntQueueTimer.c **** 	{
  48:IntQueueTimer.c **** 		/* Initialise and start the First Timer ISR. */
  49:IntQueueTimer.c **** 		isr_High_Frequency_2000Hz_ClearPending();
  41              		.loc 1 49 0
  42 0008 FFF7FEFF 		bl	isr_High_Frequency_2000Hz_ClearPending
  50:IntQueueTimer.c **** 		isr_High_Frequency_2000Hz_StartEx( ( cyisraddress ) vHighFrequencyFirstISR );
  43              		.loc 1 50 0
  44 000c 0548     		ldr	r0, .L2
  45 000e FFF7FEFF 		bl	isr_High_Frequency_2000Hz_StartEx
  51:IntQueueTimer.c **** 
  52:IntQueueTimer.c **** 		/* Initialise and start the Second Timer ISR. */
  53:IntQueueTimer.c **** 		isr_High_Frequency_2001Hz_ClearPending();
  46              		.loc 1 53 0
  47 0012 FFF7FEFF 		bl	isr_High_Frequency_2001Hz_ClearPending
  54:IntQueueTimer.c **** 		isr_High_Frequency_2001Hz_StartEx( ( cyisraddress ) vHighFrequencySecondISR );
  48              		.loc 1 54 0
  49 0016 0448     		ldr	r0, .L2+4
  50 0018 FFF7FEFF 		bl	isr_High_Frequency_2001Hz_StartEx
  51              	.LBE2:
  55:IntQueueTimer.c **** 	}
  56:IntQueueTimer.c **** 	taskEXIT_CRITICAL();
  52              		.loc 1 56 0
  53 001c FFF7FEFF 		bl	vPortExitCritical
  57:IntQueueTimer.c **** }
  54              		.loc 1 57 0
  55 0020 00BF     		nop
  56 0022 80BD     		pop	{r7, pc}
  57              	.L3:
ARM GAS  C:\Users\shevi\AppData\Local\Temp\ccGYxJFF.s 			page 3


  58              		.align	2
  59              	.L2:
  60 0024 00000000 		.word	vHighFrequencyFirstISR
  61 0028 00000000 		.word	vHighFrequencySecondISR
  62              		.cfi_endproc
  63              	.LFE68:
  64              		.size	vInitialiseTimerForIntQueueTest, .-vInitialiseTimerForIntQueueTest
  65              		.section	.text.vHighFrequencyFirstISR,"ax",%progbits
  66              		.align	2
  67              		.global	vHighFrequencyFirstISR
  68              		.thumb
  69              		.thumb_func
  70              		.type	vHighFrequencyFirstISR, %function
  71              	vHighFrequencyFirstISR:
  72              	.LFB69:
  58:IntQueueTimer.c **** /*---------------------------------------------------------------------------*/
  59:IntQueueTimer.c **** 
  60:IntQueueTimer.c **** CY_ISR(vHighFrequencyFirstISR)
  61:IntQueueTimer.c **** {
  73              		.loc 1 61 0
  74              		.cfi_startproc
  75              		@ args = 0, pretend = 0, frame = 0
  76              		@ frame_needed = 1, uses_anonymous_args = 0
  77 0000 80B5     		push	{r7, lr}
  78              		.cfi_def_cfa_offset 8
  79              		.cfi_offset 7, -8
  80              		.cfi_offset 14, -4
  81 0002 00AF     		add	r7, sp, #0
  82              		.cfi_def_cfa_register 7
  62:IntQueueTimer.c **** 	/* Call back into the test code and context switch if necessary. */
  63:IntQueueTimer.c **** 	portEND_SWITCHING_ISR( xFirstTimerHandler() );
  83              		.loc 1 63 0
  84 0004 FFF7FEFF 		bl	xFirstTimerHandler
  85 0008 0346     		mov	r3, r0
  86 000a 002B     		cmp	r3, #0
  87 000c 07D0     		beq	.L6
  88              		.loc 1 63 0 is_stmt 0 discriminator 1
  89 000e 054B     		ldr	r3, .L7
  90 0010 4FF08052 		mov	r2, #268435456
  91 0014 1A60     		str	r2, [r3]
  92              		.syntax unified
  93              	@ 63 "IntQueueTimer.c" 1
  94 0016 BFF34F8F 		dsb
  95              	@ 0 "" 2
  96              	@ 63 "IntQueueTimer.c" 1
  97 001a BFF36F8F 		isb
  98              	@ 0 "" 2
  99              		.thumb
 100              		.syntax unified
 101              	.L6:
  64:IntQueueTimer.c **** }
 102              		.loc 1 64 0 is_stmt 1
 103 001e 00BF     		nop
 104 0020 80BD     		pop	{r7, pc}
 105              	.L8:
 106 0022 00BF     		.align	2
 107              	.L7:
ARM GAS  C:\Users\shevi\AppData\Local\Temp\ccGYxJFF.s 			page 4


 108 0024 04ED00E0 		.word	-536810236
 109              		.cfi_endproc
 110              	.LFE69:
 111              		.size	vHighFrequencyFirstISR, .-vHighFrequencyFirstISR
 112              		.section	.text.vHighFrequencySecondISR,"ax",%progbits
 113              		.align	2
 114              		.global	vHighFrequencySecondISR
 115              		.thumb
 116              		.thumb_func
 117              		.type	vHighFrequencySecondISR, %function
 118              	vHighFrequencySecondISR:
 119              	.LFB70:
  65:IntQueueTimer.c **** /*---------------------------------------------------------------------------*/
  66:IntQueueTimer.c **** 
  67:IntQueueTimer.c **** CY_ISR(vHighFrequencySecondISR)
  68:IntQueueTimer.c **** {
 120              		.loc 1 68 0
 121              		.cfi_startproc
 122              		@ args = 0, pretend = 0, frame = 0
 123              		@ frame_needed = 1, uses_anonymous_args = 0
 124 0000 80B5     		push	{r7, lr}
 125              		.cfi_def_cfa_offset 8
 126              		.cfi_offset 7, -8
 127              		.cfi_offset 14, -4
 128 0002 00AF     		add	r7, sp, #0
 129              		.cfi_def_cfa_register 7
  69:IntQueueTimer.c **** 	/* Call back into the test code and context switch if necessary. */
  70:IntQueueTimer.c **** 	portEND_SWITCHING_ISR( xSecondTimerHandler() );
 130              		.loc 1 70 0
 131 0004 FFF7FEFF 		bl	xSecondTimerHandler
 132 0008 0346     		mov	r3, r0
 133 000a 002B     		cmp	r3, #0
 134 000c 07D0     		beq	.L11
 135              		.loc 1 70 0 is_stmt 0 discriminator 1
 136 000e 054B     		ldr	r3, .L12
 137 0010 4FF08052 		mov	r2, #268435456
 138 0014 1A60     		str	r2, [r3]
 139              		.syntax unified
 140              	@ 70 "IntQueueTimer.c" 1
 141 0016 BFF34F8F 		dsb
 142              	@ 0 "" 2
 143              	@ 70 "IntQueueTimer.c" 1
 144 001a BFF36F8F 		isb
 145              	@ 0 "" 2
 146              		.thumb
 147              		.syntax unified
 148              	.L11:
  71:IntQueueTimer.c **** }
 149              		.loc 1 71 0 is_stmt 1
 150 001e 00BF     		nop
 151 0020 80BD     		pop	{r7, pc}
 152              	.L13:
 153 0022 00BF     		.align	2
 154              	.L12:
 155 0024 04ED00E0 		.word	-536810236
 156              		.cfi_endproc
 157              	.LFE70:
ARM GAS  C:\Users\shevi\AppData\Local\Temp\ccGYxJFF.s 			page 5


 158              		.size	vHighFrequencySecondISR, .-vHighFrequencySecondISR
 159              		.text
 160              	.Letext0:
 161              		.file 2 "c:\\program files (x86)\\cypress\\psoc creator\\4.1\\psoc creator\\import\\gnu\\arm\\5.4.
 162              		.file 3 "c:\\program files (x86)\\cypress\\psoc creator\\4.1\\psoc creator\\import\\gnu\\arm\\5.4.
 163              		.file 4 "Generated_Source\\PSoC5/cytypes.h"
 164              		.file 5 "..\\..\\FreeRTOS_Source\\portable\\GCC\\ARM_CM3/portmacro.h"
 165              		.file 6 "Generated_Source\\PSoC5/core_cm3.h"