ARM GAS  C:\Users\shevi\AppData\Local\Temp\cc7JCaEk.s 			page 1


   1              		.syntax unified
   2              		.cpu cortex-m3
   3              		.fpu softvfp
   4              		.eabi_attribute 20, 1
   5              		.eabi_attribute 21, 1
   6              		.eabi_attribute 23, 3
   7              		.eabi_attribute 24, 1
   8              		.eabi_attribute 25, 1
   9              		.eabi_attribute 26, 1
  10              		.eabi_attribute 30, 6
  11              		.eabi_attribute 34, 1
  12              		.eabi_attribute 18, 4
  13              		.thumb
  14              		.syntax unified
  15              		.file	"main.c"
  16              		.text
  17              	.Ltext0:
  18              		.cfi_sections	.debug_frame
  19              		.bss
  20              		.align	2
  21              	pxPort:
  22 0000 00000000 		.space	4
  23              		.global	gatekeeper
  24              		.align	2
  25              		.type	gatekeeper, %object
  26              		.size	gatekeeper, 4
  27              	gatekeeper:
  28 0004 00000000 		.space	4
  29              		.global	queue_handle
  30              		.align	2
  31              		.type	queue_handle, %object
  32              		.size	queue_handle, 4
  33              	queue_handle:
  34 0008 00000000 		.space	4
  35              		.comm	rx_receive,1,1
  36              		.comm	buffer,64,4
  37              		.comm	left_wheel,36,4
  38              		.comm	right_wheel,36,4
  39              		.comm	k,24,8
  40              		.global	isMaster
  41              		.align	2
  42              		.type	isMaster, %object
  43              		.size	isMaster, 4
  44              	isMaster:
  45 000c 00000000 		.space	4
  46              		.global	first_run
  47              		.data
  48              		.align	2
  49              		.type	first_run, %object
  50              		.size	first_run, 4
  51              	first_run:
  52 0000 01000000 		.word	1
  53              		.section	.rodata
  54              		.align	2
  55              	.LC0:
  56 0000 0A3D3D3D 		.ascii	"\012=== Master ===\012\012\000"
  56      204D6173 
ARM GAS  C:\Users\shevi\AppData\Local\Temp\cc7JCaEk.s 			page 2


  56      74657220 
  56      3D3D3D0A 
  56      0A00
  57 0012 0000     		.align	2
  58              	.LC1:
  59 0014 0A3D3D3D 		.ascii	"\012=== Slave ===\012\012\000"
  59      20536C61 
  59      7665203D 
  59      3D3D0A0A 
  59      00
  60 0025 000000   		.align	2
  61              	.LC2:
  62 0028 0A3D3D3D 		.ascii	"\012=== NEW RUN ===\012\012\000"
  62      204E4557 
  62      2052554E 
  62      203D3D3D 
  62      0A0A00
  63 003b 00       		.align	2
  64              	.LC3:
  65 003c 696E6974 		.ascii	"initialise the PID\000"
  65      69616C69 
  65      73652074 
  65      68652050 
  65      494400
  66 004f 00       		.align	2
  67              	.LC4:
  68 0050 77616974 		.ascii	"waiting for a serial bus to come in\000"
  68      696E6720 
  68      666F7220 
  68      61207365 
  68      7269616C 
  69              		.section	.text.main,"ax",%progbits
  70              		.align	2
  71              		.global	main
  72              		.thumb
  73              		.thumb_func
  74              		.type	main, %function
  75              	main:
  76              	.LFB69:
  77              		.file 1 "main.c"
   1:main.c        **** /*
   2:main.c        ****  * FreeRTOS Kernel V10.0.1
   3:main.c        ****  * Copyright (C) 2017 Amazon.com, Inc. or its affiliates.  All Rights Reserved.
   4:main.c        ****  *
   5:main.c        ****  * Permission is hereby granted, free of charge, to any person obtaining a copy of
   6:main.c        ****  * this software and associated documentation files (the "Software"), to deal in
   7:main.c        ****  * the Software without restriction, including without limitation the rights to
   8:main.c        ****  * use, copy, modify, merge, publish, distribute, sublicense, and/or sell copies of
   9:main.c        ****  * the Software, and to permit persons to whom the Software is furnished to do so,
  10:main.c        ****  * subject to the following conditions:
  11:main.c        ****  *
  12:main.c        ****  * The above copyright notice and this permission notice shall be included in all
  13:main.c        ****  * copies or substantial portions of the Software.
  14:main.c        ****  *
  15:main.c        ****  * THE SOFTWARE IS PROVIDED "AS IS", WITHOUT WARRANTY OF ANY KIND, EXPRESS OR
  16:main.c        ****  * IMPLIED, INCLUDING BUT NOT LIMITED TO THE WARRANTIES OF MERCHANTABILITY, FITNESS
  17:main.c        ****  * FOR A PARTICULAR PURPOSE AND NONINFRINGEMENT. IN NO EVENT SHALL THE AUTHORS OR
ARM GAS  C:\Users\shevi\AppData\Local\Temp\cc7JCaEk.s 			page 3


  18:main.c        ****  * COPYRIGHT HOLDERS BE LIABLE FOR ANY CLAIM, DAMAGES OR OTHER LIABILITY, WHETHER
  19:main.c        ****  * IN AN ACTION OF CONTRACT, TORT OR OTHERWISE, ARISING FROM, OUT OF OR IN
  20:main.c        ****  * CONNECTION WITH THE SOFTWARE OR THE USE OR OTHER DEALINGS IN THE SOFTWARE.
  21:main.c        ****  *
  22:main.c        ****  * http://www.FreeRTOS.org
  23:main.c        ****  * http://aws.amazon.com/freertos
  24:main.c        ****  *
  25:main.c        ****  * 1 tab == 4 spaces!
  26:main.c        ****  */
  27:main.c        **** 
  28:main.c        **** /* This is the master file !!!!!!  */
  29:main.c        **** 
  30:main.c        **** 
  31:main.c        **** 
  32:main.c        **** 
  33:main.c        **** /* Standard includes */
  34:main.c        **** #include <device.h>
  35:main.c        **** #include <stdio.h>
  36:main.c        **** #include <stdint.h>
  37:main.c        **** #include <stdio.h>
  38:main.c        **** #include <stdint.h>
  39:main.c        **** #include <stdlib.h>
  40:main.c        **** #include <string.h>
  41:main.c        ****  
  42:main.c        **** 
  43:main.c        **** /* FreeRTOS includes */
  44:main.c        **** #include "FreeRTOS.h"
  45:main.c        **** #include "task.h"
  46:main.c        **** #include "semphr.h"
  47:main.c        **** #include "serial.h"
  48:main.c        **** 
  49:main.c        **** /* My headers */
  50:main.c        **** #include "movement.h"
  51:main.c        **** 
  52:main.c        **** /* The time between cycles of the 'check' functionality (defined within the
  53:main.c        **** tick hook. */
  54:main.c        **** #define mainCHECK_DELAY						( ( TickType_t ) 5000 / portTICK_PERIOD_MS )
  55:main.c        **** #define mainCOM_LED							( 3 )
  56:main.c        **** 
  57:main.c        **** /* The number of nano seconds between each processor clock. */
  58:main.c        **** #define mainNS_PER_CLOCK ( ( unsigned long ) ( ( 1.0 / ( double ) configCPU_CLOCK_HZ ) * 1000000000
  59:main.c        **** 
  60:main.c        **** /* Task priorities. */
  61:main.c        **** #define mainSENDER_PRIORITY       			( tskIDLE_PRIORITY )
  62:main.c        **** #define mainRECEIVER_PRIORITY        		( tskIDLE_PRIORITY )
  63:main.c        **** 
  64:main.c        **** #define comRX_BLOCK_TIME			( ( TickType_t ) 0xffff )
  65:main.c        **** 
  66:main.c        **** 
  67:main.c        **** void PID_initialise( void *p );
  68:main.c        **** void receive_data( void *p );
  69:main.c        **** void DMA_config();
  70:main.c        **** static void prvHardwareSetup( void );
  71:main.c        **** 
  72:main.c        **** 
  73:main.c        **** static xComPortHandle pxPort = NULL;
  74:main.c        **** xSemaphoreHandle gatekeeper = 0;
ARM GAS  C:\Users\shevi\AppData\Local\Temp\cc7JCaEk.s 			page 4


  75:main.c        **** xQueueHandle queue_handle = NULL;
  76:main.c        **** 
  77:main.c        **** 
  78:main.c        **** /* global variables */
  79:main.c        **** signed char rx_receive;
  80:main.c        **** unsigned char buffer[64];
  81:main.c        **** 
  82:main.c        **** 
  83:main.c        **** wheel_data left_wheel;
  84:main.c        **** wheel_data right_wheel;
  85:main.c        **** PID_data k;
  86:main.c        **** 
  87:main.c        **** int isMaster=0;          // use 1 if it is the master, 0 if it is the slave.
  88:main.c        **** int first_run=1;
  89:main.c        **** 
  90:main.c        **** // START OF FUNCTIONS
  91:main.c        **** int main( void ) {
  78              		.loc 1 91 0
  79              		.cfi_startproc
  80              		@ args = 0, pretend = 0, frame = 256
  81              		@ frame_needed = 1, uses_anonymous_args = 0
  82 0000 B0B5     		push	{r4, r5, r7, lr}
  83              		.cfi_def_cfa_offset 16
  84              		.cfi_offset 4, -16
  85              		.cfi_offset 5, -12
  86              		.cfi_offset 7, -8
  87              		.cfi_offset 14, -4
  88 0002 C2B0     		sub	sp, sp, #264
  89              		.cfi_def_cfa_offset 280
  90 0004 02AF     		add	r7, sp, #8
  91              		.cfi_def_cfa 7, 272
  92:main.c        **** 	const signed char * run[64];
  93:main.c        ****     
  94:main.c        ****     prvHardwareSetup(); 
  92              		.loc 1 94 0
  93 0006 FFF7FEFF 		bl	prvHardwareSetup
  95:main.c        ****     
  96:main.c        ****     if (isMaster){
  94              		.loc 1 96 0
  95 000a 2C4B     		ldr	r3, .L5
  96 000c 1B68     		ldr	r3, [r3]
  97 000e 002B     		cmp	r3, #0
  98 0010 0ED0     		beq	.L2
  97:main.c        ****     /* This is the for loop for the master system */
  98:main.c        ****         sprintf((char *) run, "\n=== Master ===\n\n");
  99              		.loc 1 98 0
 100 0012 3B46     		mov	r3, r7
 101 0014 2A4A     		ldr	r2, .L5+4
 102 0016 1C46     		mov	r4, r3
 103 0018 1546     		mov	r5, r2
 104 001a 0FCD     		ldmia	r5!, {r0, r1, r2, r3}
 105 001c 0FC4     		stmia	r4!, {r0, r1, r2, r3}
 106 001e 2B68     		ldr	r3, [r5]
 107 0020 2380     		strh	r3, [r4]	@ movhi
  99:main.c        ****         vSerialPutString(pxPort, (const signed char *) run, 64);
 108              		.loc 1 99 0
 109 0022 284B     		ldr	r3, .L5+8
ARM GAS  C:\Users\shevi\AppData\Local\Temp\cc7JCaEk.s 			page 5


 110 0024 1B68     		ldr	r3, [r3]
 111 0026 3946     		mov	r1, r7
 112 0028 4022     		movs	r2, #64
 113 002a 1846     		mov	r0, r3
 114 002c FFF7FEFF 		bl	vSerialPutString
 115              	.L2:
 100:main.c        ****     }
 101:main.c        ****     if (isMaster==0){
 116              		.loc 1 101 0
 117 0030 224B     		ldr	r3, .L5
 118 0032 1B68     		ldr	r3, [r3]
 119 0034 002B     		cmp	r3, #0
 120 0036 0ED1     		bne	.L3
 102:main.c        ****     /* This is the for loop for the slave system */
 103:main.c        ****         sprintf((char *) run, "\n=== Slave ===\n\n");
 121              		.loc 1 103 0
 122 0038 3B46     		mov	r3, r7
 123 003a 234A     		ldr	r2, .L5+12
 124 003c 1C46     		mov	r4, r3
 125 003e 1546     		mov	r5, r2
 126 0040 0FCD     		ldmia	r5!, {r0, r1, r2, r3}
 127 0042 0FC4     		stmia	r4!, {r0, r1, r2, r3}
 128 0044 2B68     		ldr	r3, [r5]
 129 0046 2370     		strb	r3, [r4]
 104:main.c        ****         vSerialPutString(pxPort, (const signed char *) run, 64);
 130              		.loc 1 104 0
 131 0048 1E4B     		ldr	r3, .L5+8
 132 004a 1B68     		ldr	r3, [r3]
 133 004c 3946     		mov	r1, r7
 134 004e 4022     		movs	r2, #64
 135 0050 1846     		mov	r0, r3
 136 0052 FFF7FEFF 		bl	vSerialPutString
 137              	.L3:
 105:main.c        ****       }  
 106:main.c        ****     sprintf((char *) run, "\n=== NEW RUN ===\n\n");
 138              		.loc 1 106 0
 139 0056 3B46     		mov	r3, r7
 140 0058 1C4A     		ldr	r2, .L5+16
 141 005a 1C46     		mov	r4, r3
 142 005c 1546     		mov	r5, r2
 143 005e 0FCD     		ldmia	r5!, {r0, r1, r2, r3}
 144 0060 0FC4     		stmia	r4!, {r0, r1, r2, r3}
 145 0062 2B68     		ldr	r3, [r5]
 146 0064 1A46     		mov	r2, r3	@ movhi
 147 0066 2280     		strh	r2, [r4]	@ movhi
 148 0068 0234     		adds	r4, r4, #2
 149 006a 1B0C     		lsrs	r3, r3, #16
 150 006c 2370     		strb	r3, [r4]
 107:main.c        ****     vSerialPutString(pxPort, (const signed char *) run, 64);
 151              		.loc 1 107 0
 152 006e 154B     		ldr	r3, .L5+8
 153 0070 1B68     		ldr	r3, [r3]
 154 0072 3946     		mov	r1, r7
 155 0074 4022     		movs	r2, #64
 156 0076 1846     		mov	r0, r3
 157 0078 FFF7FEFF 		bl	vSerialPutString
 108:main.c        ****     
ARM GAS  C:\Users\shevi\AppData\Local\Temp\cc7JCaEk.s 			page 6


 109:main.c        ****     gatekeeper = xSemaphoreCreateMutex();
 158              		.loc 1 109 0
 159 007c 0120     		movs	r0, #1
 160 007e FFF7FEFF 		bl	xQueueCreateMutex
 161 0082 0246     		mov	r2, r0
 162 0084 124B     		ldr	r3, .L5+20
 163 0086 1A60     		str	r2, [r3]
 110:main.c        ****     
 111:main.c        ****     xTaskCreate( PID_initialise, (const char*) "initialise the PID", 1024, NULL, 2, NULL );
 164              		.loc 1 111 0
 165 0088 0023     		movs	r3, #0
 166 008a 0193     		str	r3, [sp, #4]
 167 008c 0223     		movs	r3, #2
 168 008e 0093     		str	r3, [sp]
 169 0090 0023     		movs	r3, #0
 170 0092 4FF48062 		mov	r2, #1024
 171 0096 0F49     		ldr	r1, .L5+24
 172 0098 0F48     		ldr	r0, .L5+28
 173 009a FFF7FEFF 		bl	xTaskCreate
 112:main.c        ****     xTaskCreate( receive_data, (const char*) "waiting for a serial bus to come in", 1024, NULL, 1, 
 174              		.loc 1 112 0
 175 009e 0023     		movs	r3, #0
 176 00a0 0193     		str	r3, [sp, #4]
 177 00a2 0123     		movs	r3, #1
 178 00a4 0093     		str	r3, [sp]
 179 00a6 0023     		movs	r3, #0
 180 00a8 4FF48062 		mov	r2, #1024
 181 00ac 0B49     		ldr	r1, .L5+32
 182 00ae 0C48     		ldr	r0, .L5+36
 183 00b0 FFF7FEFF 		bl	xTaskCreate
 113:main.c        ****     
 114:main.c        **** 	vTaskStartScheduler();
 184              		.loc 1 114 0
 185 00b4 FFF7FEFF 		bl	vTaskStartScheduler
 186              	.L4:
 115:main.c        **** 
 116:main.c        **** 	for( ;; );  // You won't actually reach this for loop.
 187              		.loc 1 116 0 discriminator 1
 188 00b8 FEE7     		b	.L4
 189              	.L6:
 190 00ba 00BF     		.align	2
 191              	.L5:
 192 00bc 00000000 		.word	isMaster
 193 00c0 00000000 		.word	.LC0
 194 00c4 00000000 		.word	pxPort
 195 00c8 14000000 		.word	.LC1
 196 00cc 28000000 		.word	.LC2
 197 00d0 00000000 		.word	gatekeeper
 198 00d4 3C000000 		.word	.LC3
 199 00d8 00000000 		.word	PID_initialise
 200 00dc 50000000 		.word	.LC4
 201 00e0 00000000 		.word	receive_data
 202              		.cfi_endproc
 203              	.LFE69:
 204              		.size	main, .-main
 205              		.section	.rodata
 206              		.align	2
ARM GAS  C:\Users\shevi\AppData\Local\Temp\cc7JCaEk.s 			page 7


 207              	.LC5:
 208 0074 62756666 		.ascii	"buffer read as %s\012\000"
 208      65722072 
 208      65616420 
 208      61732025 
 208      730A00
 209 0087 00       		.align	2
 210              	.LC6:
 211 0088 6C656674 		.ascii	"left inc: %i\012right inc: %i\012\000"
 211      20696E63 
 211      3A202569 
 211      0A726967 
 211      68742069 
 212              		.align	2
 213              	.LC7:
 214 00a4 56455254 		.ascii	"VERTICAL \012\000"
 214      4943414C 
 214      200A00
 215 00af 00       		.align	2
 216              	.LC8:
 217 00b0 4C617365 		.ascii	"Laser UP \012\000"
 217      72205550 
 217      200A00
 218 00bb 00       		.align	2
 219              	.LC9:
 220 00bc 484F5249 		.ascii	"HORIZONTAL \012\000"
 220      5A4F4E54 
 220      414C200A 
 220      00
 221 00c9 000000   		.align	2
 222              	.LC10:
 223 00cc 4C617365 		.ascii	"Laser DOWN \012\000"
 223      7220444F 
 223      574E200A 
 223      00
 224 00d9 000000   		.align	2
 225              	.LC11:
 226 00dc 4C454420 		.ascii	"LED BLUE TURN ON\012\000"
 226      424C5545 
 226      20545552 
 226      4E204F4E 
 226      0A00
 227 00ee 0000     		.align	2
 228              	.LC12:
 229 00f0 4C454420 		.ascii	"LED RED TURN ON\012\000"
 229      52454420 
 229      5455524E 
 229      204F4E0A 
 229      00
 230 0101 000000   		.align	2
 231              	.LC13:
 232 0104 4C454420 		.ascii	"LED BLUE TURN OFF\012\000"
 232      424C5545 
 232      20545552 
 232      4E204F46 
 232      460A00
 233 0117 00       		.align	2
ARM GAS  C:\Users\shevi\AppData\Local\Temp\cc7JCaEk.s 			page 8


 234              	.LC14:
 235 0118 4C454420 		.ascii	"LED RED TURN OFF\012\000"
 235      52454420 
 235      5455524E 
 235      204F4646 
 235      0A00
 236              		.section	.text.receive_data,"ax",%progbits
 237              		.align	2
 238              		.global	receive_data
 239              		.thumb
 240              		.thumb_func
 241              		.type	receive_data, %function
 242              	receive_data:
 243              	.LFB70:
 117:main.c        **** }
 118:main.c        **** 
 119:main.c        **** void receive_data( void *p ) {
 244              		.loc 1 119 0
 245              		.cfi_startproc
 246              		@ args = 0, pretend = 0, frame = 288
 247              		@ frame_needed = 1, uses_anonymous_args = 0
 248 0000 B0B5     		push	{r4, r5, r7, lr}
 249              		.cfi_def_cfa_offset 16
 250              		.cfi_offset 4, -16
 251              		.cfi_offset 5, -12
 252              		.cfi_offset 7, -8
 253              		.cfi_offset 14, -4
 254 0002 C8B0     		sub	sp, sp, #288
 255              		.cfi_def_cfa_offset 304
 256 0004 00AF     		add	r7, sp, #0
 257              		.cfi_def_cfa_register 7
 258 0006 3B1D     		adds	r3, r7, #4
 259 0008 1860     		str	r0, [r3]
 120:main.c        ****     
 121:main.c        ****     p = NULL;
 260              		.loc 1 121 0
 261 000a 3B1D     		adds	r3, r7, #4
 262 000c 0022     		movs	r2, #0
 263 000e 1A60     		str	r2, [r3]
 122:main.c        ****     
 123:main.c        ****     const signed char * local_write[64];
 124:main.c        ****     int i = 0;
 264              		.loc 1 124 0
 265 0010 0023     		movs	r3, #0
 266 0012 C7F81C31 		str	r3, [r7, #284]
 125:main.c        ****     int go = 0;
 267              		.loc 1 125 0
 268 0016 0023     		movs	r3, #0
 269 0018 C7F81831 		str	r3, [r7, #280]
 126:main.c        ****     signed char type = 0;
 270              		.loc 1 126 0
 271 001c 0023     		movs	r3, #0
 272 001e 87F81731 		strb	r3, [r7, #279]
 273              	.L23:
 127:main.c        ****     char temp[10];
 128:main.c        ****     
 129:main.c        ****     while(1) {
ARM GAS  C:\Users\shevi\AppData\Local\Temp\cc7JCaEk.s 			page 9


 130:main.c        ****         if (pdTRUE == xSerialGetChar(pxPort, &rx_receive, comRX_BLOCK_TIME)) {
 274              		.loc 1 130 0
 275 0022 B44B     		ldr	r3, .L24
 276 0024 1B68     		ldr	r3, [r3]
 277 0026 4FF6FF72 		movw	r2, #65535
 278 002a B349     		ldr	r1, .L24+4
 279 002c 1846     		mov	r0, r3
 280 002e FFF7FEFF 		bl	xSerialGetChar
 281 0032 0346     		mov	r3, r0
 282 0034 012B     		cmp	r3, #1
 283 0036 F4D1     		bne	.L23
 131:main.c        ****             type = rx_receive;
 284              		.loc 1 131 0
 285 0038 AF4B     		ldr	r3, .L24+4
 286 003a 1B78     		ldrb	r3, [r3]
 287 003c 87F81731 		strb	r3, [r7, #279]
 132:main.c        ****             if(xSemaphoreTake(gatekeeper, 50000)) {
 288              		.loc 1 132 0
 289 0040 AE4B     		ldr	r3, .L24+8
 290 0042 1B68     		ldr	r3, [r3]
 291 0044 4CF25031 		movw	r1, #50000
 292 0048 1846     		mov	r0, r3
 293 004a FFF7FEFF 		bl	xQueueSemaphoreTake
 294 004e 0346     		mov	r3, r0
 295 0050 002B     		cmp	r3, #0
 296 0052 E6D0     		beq	.L23
 133:main.c        ****                 if(type=='1'){//
 297              		.loc 1 133 0
 298 0054 97F91731 		ldrsb	r3, [r7, #279]
 299 0058 312B     		cmp	r3, #49
 300 005a 43D1     		bne	.L9
 134:main.c        ****                     for(i=0;i<8;i++){
 301              		.loc 1 134 0
 302 005c 0023     		movs	r3, #0
 303 005e C7F81C31 		str	r3, [r7, #284]
 304 0062 16E0     		b	.L10
 305              	.L11:
 135:main.c        ****                         xSerialGetChar(pxPort, &rx_receive, comRX_BLOCK_TIME);
 306              		.loc 1 135 0 discriminator 3
 307 0064 A34B     		ldr	r3, .L24
 308 0066 1B68     		ldr	r3, [r3]
 309 0068 4FF6FF72 		movw	r2, #65535
 310 006c A249     		ldr	r1, .L24+4
 311 006e 1846     		mov	r0, r3
 312 0070 FFF7FEFF 		bl	xSerialGetChar
 136:main.c        ****                         buffer[i] = rx_receive;
 313              		.loc 1 136 0 discriminator 3
 314 0074 A04B     		ldr	r3, .L24+4
 315 0076 93F90030 		ldrsb	r3, [r3]
 316 007a D9B2     		uxtb	r1, r3
 317 007c A04A     		ldr	r2, .L24+12
 318 007e D7F81C31 		ldr	r3, [r7, #284]
 319 0082 1344     		add	r3, r3, r2
 320 0084 0A46     		mov	r2, r1
 321 0086 1A70     		strb	r2, [r3]
 134:main.c        ****                     for(i=0;i<8;i++){
 322              		.loc 1 134 0 discriminator 3
ARM GAS  C:\Users\shevi\AppData\Local\Temp\cc7JCaEk.s 			page 10


 323 0088 D7F81C31 		ldr	r3, [r7, #284]
 324 008c 0133     		adds	r3, r3, #1
 325 008e C7F81C31 		str	r3, [r7, #284]
 326              	.L10:
 134:main.c        ****                     for(i=0;i<8;i++){
 327              		.loc 1 134 0 is_stmt 0 discriminator 1
 328 0092 D7F81C31 		ldr	r3, [r7, #284]
 329 0096 072B     		cmp	r3, #7
 330 0098 E4DD     		ble	.L11
 137:main.c        ****                     }
 138:main.c        ****                     sprintf((char *) local_write, "buffer read as %s\n", buffer);
 331              		.loc 1 138 0 is_stmt 1
 332 009a 07F11403 		add	r3, r7, #20
 333 009e 984A     		ldr	r2, .L24+12
 334 00a0 9849     		ldr	r1, .L24+16
 335 00a2 1846     		mov	r0, r3
 336 00a4 FFF7FEFF 		bl	sprintf
 139:main.c        ****                     vSerialPutString(pxPort, (const signed char *) local_write, 64);
 337              		.loc 1 139 0
 338 00a8 924B     		ldr	r3, .L24
 339 00aa 1B68     		ldr	r3, [r3]
 340 00ac 07F11401 		add	r1, r7, #20
 341 00b0 4022     		movs	r2, #64
 342 00b2 1846     		mov	r0, r3
 343 00b4 FFF7FEFF 		bl	vSerialPutString
 140:main.c        ****                     update_inc( &left_wheel, &right_wheel, buffer);
 344              		.loc 1 140 0
 345 00b8 914A     		ldr	r2, .L24+12
 346 00ba 9349     		ldr	r1, .L24+20
 347 00bc 9348     		ldr	r0, .L24+24
 348 00be FFF7FEFF 		bl	update_inc
 141:main.c        ****                     sprintf((char *) local_write, "left inc: %i\nright inc: %i\n", left_wheel.inc, 
 349              		.loc 1 141 0
 350 00c2 924B     		ldr	r3, .L24+24
 351 00c4 9A69     		ldr	r2, [r3, #24]
 352 00c6 904B     		ldr	r3, .L24+20
 353 00c8 9B69     		ldr	r3, [r3, #24]
 354 00ca 07F11400 		add	r0, r7, #20
 355 00ce 9049     		ldr	r1, .L24+28
 356 00d0 FFF7FEFF 		bl	sprintf
 142:main.c        ****                     vSerialPutString(pxPort, (const signed char *) local_write, 64);
 357              		.loc 1 142 0
 358 00d4 874B     		ldr	r3, .L24
 359 00d6 1B68     		ldr	r3, [r3]
 360 00d8 07F11401 		add	r1, r7, #20
 361 00dc 4022     		movs	r2, #64
 362 00de 1846     		mov	r0, r3
 363 00e0 FFF7FEFF 		bl	vSerialPutString
 364              	.L9:
 143:main.c        ****                 }
 144:main.c        ****                 if(type=='2'){
 365              		.loc 1 144 0
 366 00e4 97F91731 		ldrsb	r3, [r7, #279]
 367 00e8 322B     		cmp	r3, #50
 368 00ea 01D1     		bne	.L12
 145:main.c        ****                     CySoftwareReset();
 369              		.loc 1 145 0
ARM GAS  C:\Users\shevi\AppData\Local\Temp\cc7JCaEk.s 			page 11


 370 00ec FFF7FEFF 		bl	CySoftwareReset
 371              	.L12:
 146:main.c        ****                 }  
 147:main.c        ****             
 148:main.c        ****                 if (type=='4'){//Camera position for LED CV
 372              		.loc 1 148 0
 373 00f0 97F91731 		ldrsb	r3, [r7, #279]
 374 00f4 342B     		cmp	r3, #52
 375 00f6 41D1     		bne	.L13
 149:main.c        ****                     if(isMaster==0){
 376              		.loc 1 149 0
 377 00f8 864B     		ldr	r3, .L24+32
 378 00fa 1B68     		ldr	r3, [r3]
 379 00fc 002B     		cmp	r3, #0
 380 00fe 1CD1     		bne	.L14
 150:main.c        ****                     sprintf((char *) local_write, "VERTICAL \n");
 381              		.loc 1 150 0
 382 0100 07F11403 		add	r3, r7, #20
 383 0104 844A     		ldr	r2, .L24+36
 384 0106 07CA     		ldmia	r2, {r0, r1, r2}
 385 0108 03C3     		stmia	r3!, {r0, r1}
 386 010a 1A80     		strh	r2, [r3]	@ movhi
 387 010c 0233     		adds	r3, r3, #2
 388 010e 120C     		lsrs	r2, r2, #16
 389 0110 1A70     		strb	r2, [r3]
 151:main.c        ****                     vSerialPutString(pxPort, (const signed char *) local_write, 64);
 390              		.loc 1 151 0
 391 0112 784B     		ldr	r3, .L24
 392 0114 1B68     		ldr	r3, [r3]
 393 0116 07F11401 		add	r1, r7, #20
 394 011a 4022     		movs	r2, #64
 395 011c 1846     		mov	r0, r3
 396 011e FFF7FEFF 		bl	vSerialPutString
 152:main.c        ****                     PWM_1_Wakeup();                 
 397              		.loc 1 152 0
 398 0122 FFF7FEFF 		bl	PWM_1_Wakeup
 153:main.c        ****                     PWM_1_WriteCompare(1200);
 399              		.loc 1 153 0
 400 0126 4FF49660 		mov	r0, #1200
 401 012a FFF7FEFF 		bl	PWM_1_WriteCompare
 154:main.c        ****                     CyDelay(1000);
 402              		.loc 1 154 0
 403 012e 4FF47A70 		mov	r0, #1000
 404 0132 FFF7FEFF 		bl	CyDelay
 155:main.c        ****                     PWM_1_Sleep();}
 405              		.loc 1 155 0
 406 0136 FFF7FEFF 		bl	PWM_1_Sleep
 407              	.L14:
 156:main.c        ****                     if(isMaster==1){
 408              		.loc 1 156 0
 409 013a 764B     		ldr	r3, .L24+32
 410 013c 1B68     		ldr	r3, [r3]
 411 013e 012B     		cmp	r3, #1
 412 0140 1CD1     		bne	.L13
 157:main.c        ****                     sprintf((char *) local_write, "Laser UP \n");
 413              		.loc 1 157 0
 414 0142 07F11403 		add	r3, r7, #20
ARM GAS  C:\Users\shevi\AppData\Local\Temp\cc7JCaEk.s 			page 12


 415 0146 754A     		ldr	r2, .L24+40
 416 0148 07CA     		ldmia	r2, {r0, r1, r2}
 417 014a 03C3     		stmia	r3!, {r0, r1}
 418 014c 1A80     		strh	r2, [r3]	@ movhi
 419 014e 0233     		adds	r3, r3, #2
 420 0150 120C     		lsrs	r2, r2, #16
 421 0152 1A70     		strb	r2, [r3]
 158:main.c        ****                     vSerialPutString(pxPort, (const signed char *) local_write, 64);
 422              		.loc 1 158 0
 423 0154 674B     		ldr	r3, .L24
 424 0156 1B68     		ldr	r3, [r3]
 425 0158 07F11401 		add	r1, r7, #20
 426 015c 4022     		movs	r2, #64
 427 015e 1846     		mov	r0, r3
 428 0160 FFF7FEFF 		bl	vSerialPutString
 159:main.c        ****                     PWM_2_Wakeup();                 
 429              		.loc 1 159 0
 430 0164 FFF7FEFF 		bl	PWM_2_Wakeup
 160:main.c        ****                     PWM_2_WriteCompare(1850); //DONT GO Below 1800 
 431              		.loc 1 160 0
 432 0168 40F23A70 		movw	r0, #1850
 433 016c FFF7FEFF 		bl	PWM_2_WriteCompare
 161:main.c        ****                     CyDelay(1000);
 434              		.loc 1 161 0
 435 0170 4FF47A70 		mov	r0, #1000
 436 0174 FFF7FEFF 		bl	CyDelay
 162:main.c        ****                     PWM_2_Sleep();}
 437              		.loc 1 162 0
 438 0178 FFF7FEFF 		bl	PWM_2_Sleep
 439              	.L13:
 163:main.c        ****                         
 164:main.c        ****                     
 165:main.c        ****                 }
 166:main.c        ****                 if (type=='5'){//Causes position for Laser DOT CV
 440              		.loc 1 166 0
 441 017c 97F91731 		ldrsb	r3, [r7, #279]
 442 0180 352B     		cmp	r3, #53
 443 0182 3FD1     		bne	.L15
 167:main.c        ****                     if(isMaster==0){
 444              		.loc 1 167 0
 445 0184 634B     		ldr	r3, .L24+32
 446 0186 1B68     		ldr	r3, [r3]
 447 0188 002B     		cmp	r3, #0
 448 018a 1BD1     		bne	.L16
 168:main.c        ****                     sprintf((char *) local_write, "HORIZONTAL \n");
 449              		.loc 1 168 0
 450 018c 07F11403 		add	r3, r7, #20
 451 0190 634A     		ldr	r2, .L24+44
 452 0192 1C46     		mov	r4, r3
 453 0194 1346     		mov	r3, r2
 454 0196 0FCB     		ldmia	r3, {r0, r1, r2, r3}
 455 0198 07C4     		stmia	r4!, {r0, r1, r2}
 456 019a 2370     		strb	r3, [r4]
 169:main.c        ****                     vSerialPutString(pxPort, (const signed char *) local_write, 64);
 457              		.loc 1 169 0
 458 019c 554B     		ldr	r3, .L24
 459 019e 1B68     		ldr	r3, [r3]
ARM GAS  C:\Users\shevi\AppData\Local\Temp\cc7JCaEk.s 			page 13


 460 01a0 07F11401 		add	r1, r7, #20
 461 01a4 4022     		movs	r2, #64
 462 01a6 1846     		mov	r0, r3
 463 01a8 FFF7FEFF 		bl	vSerialPutString
 170:main.c        ****                     PWM_1_Wakeup();
 464              		.loc 1 170 0
 465 01ac FFF7FEFF 		bl	PWM_1_Wakeup
 171:main.c        ****                     PWM_1_WriteCompare(2100);//0 deg;
 466              		.loc 1 171 0
 467 01b0 40F63400 		movw	r0, #2100
 468 01b4 FFF7FEFF 		bl	PWM_1_WriteCompare
 172:main.c        ****                     CyDelay(1000);
 469              		.loc 1 172 0
 470 01b8 4FF47A70 		mov	r0, #1000
 471 01bc FFF7FEFF 		bl	CyDelay
 173:main.c        ****                     PWM_1_Sleep();}
 472              		.loc 1 173 0
 473 01c0 FFF7FEFF 		bl	PWM_1_Sleep
 474              	.L16:
 174:main.c        ****                     if(isMaster==1){
 475              		.loc 1 174 0
 476 01c4 534B     		ldr	r3, .L24+32
 477 01c6 1B68     		ldr	r3, [r3]
 478 01c8 012B     		cmp	r3, #1
 479 01ca 1BD1     		bne	.L15
 175:main.c        ****                     sprintf((char *) local_write, "Laser DOWN \n");
 480              		.loc 1 175 0
 481 01cc 07F11403 		add	r3, r7, #20
 482 01d0 544A     		ldr	r2, .L24+48
 483 01d2 1C46     		mov	r4, r3
 484 01d4 1346     		mov	r3, r2
 485 01d6 0FCB     		ldmia	r3, {r0, r1, r2, r3}
 486 01d8 07C4     		stmia	r4!, {r0, r1, r2}
 487 01da 2370     		strb	r3, [r4]
 176:main.c        ****                     vSerialPutString(pxPort, (const signed char *) local_write, 64);
 488              		.loc 1 176 0
 489 01dc 454B     		ldr	r3, .L24
 490 01de 1B68     		ldr	r3, [r3]
 491 01e0 07F11401 		add	r1, r7, #20
 492 01e4 4022     		movs	r2, #64
 493 01e6 1846     		mov	r0, r3
 494 01e8 FFF7FEFF 		bl	vSerialPutString
 177:main.c        ****                     PWM_2_Wakeup();                 
 495              		.loc 1 177 0
 496 01ec FFF7FEFF 		bl	PWM_2_Wakeup
 178:main.c        ****                     PWM_2_WriteCompare(2100); //DONT GO ABOVE 2100
 497              		.loc 1 178 0
 498 01f0 40F63400 		movw	r0, #2100
 499 01f4 FFF7FEFF 		bl	PWM_2_WriteCompare
 179:main.c        ****                     CyDelay(1000);
 500              		.loc 1 179 0
 501 01f8 4FF47A70 		mov	r0, #1000
 502 01fc FFF7FEFF 		bl	CyDelay
 180:main.c        ****                     PWM_2_Sleep();}
 503              		.loc 1 180 0
 504 0200 FFF7FEFF 		bl	PWM_2_Sleep
 505              	.L15:
ARM GAS  C:\Users\shevi\AppData\Local\Temp\cc7JCaEk.s 			page 14


 181:main.c        ****                     
 182:main.c        ****                 }
 183:main.c        ****                  if (type=='6' && isMaster){//TURN ON LED_BLUE
 506              		.loc 1 183 0
 507 0204 97F91731 		ldrsb	r3, [r7, #279]
 508 0208 362B     		cmp	r3, #54
 509 020a 17D1     		bne	.L17
 510              		.loc 1 183 0 is_stmt 0 discriminator 1
 511 020c 414B     		ldr	r3, .L24+32
 512 020e 1B68     		ldr	r3, [r3]
 513 0210 002B     		cmp	r3, #0
 514 0212 13D0     		beq	.L17
 184:main.c        ****                     sprintf((char *) local_write, "LED BLUE TURN ON\n");
 515              		.loc 1 184 0 is_stmt 1
 516 0214 07F11403 		add	r3, r7, #20
 517 0218 434A     		ldr	r2, .L24+52
 518 021a 1C46     		mov	r4, r3
 519 021c 1546     		mov	r5, r2
 520 021e 0FCD     		ldmia	r5!, {r0, r1, r2, r3}
 521 0220 0FC4     		stmia	r4!, {r0, r1, r2, r3}
 522 0222 2B68     		ldr	r3, [r5]
 523 0224 2380     		strh	r3, [r4]	@ movhi
 185:main.c        ****                     vSerialPutString(pxPort, (const signed char *) local_write, 64);
 524              		.loc 1 185 0
 525 0226 334B     		ldr	r3, .L24
 526 0228 1B68     		ldr	r3, [r3]
 527 022a 07F11401 		add	r1, r7, #20
 528 022e 4022     		movs	r2, #64
 529 0230 1846     		mov	r0, r3
 530 0232 FFF7FEFF 		bl	vSerialPutString
 186:main.c        ****                     LED_BLUE_Write(1);                    
 531              		.loc 1 186 0
 532 0236 0120     		movs	r0, #1
 533 0238 FFF7FEFF 		bl	LED_BLUE_Write
 534              	.L17:
 187:main.c        ****                 }
 188:main.c        ****                 if (type=='7' && isMaster){//TURN ON LED_RED
 535              		.loc 1 188 0
 536 023c 97F91731 		ldrsb	r3, [r7, #279]
 537 0240 372B     		cmp	r3, #55
 538 0242 17D1     		bne	.L18
 539              		.loc 1 188 0 is_stmt 0 discriminator 1
 540 0244 334B     		ldr	r3, .L24+32
 541 0246 1B68     		ldr	r3, [r3]
 542 0248 002B     		cmp	r3, #0
 543 024a 13D0     		beq	.L18
 189:main.c        ****                     sprintf((char *) local_write, "LED RED TURN ON\n");
 544              		.loc 1 189 0 is_stmt 1
 545 024c 07F11403 		add	r3, r7, #20
 546 0250 364A     		ldr	r2, .L24+56
 547 0252 1C46     		mov	r4, r3
 548 0254 1546     		mov	r5, r2
 549 0256 0FCD     		ldmia	r5!, {r0, r1, r2, r3}
 550 0258 0FC4     		stmia	r4!, {r0, r1, r2, r3}
 551 025a 2B68     		ldr	r3, [r5]
 552 025c 2370     		strb	r3, [r4]
 190:main.c        ****                     vSerialPutString(pxPort, (const signed char *) local_write, 64);
ARM GAS  C:\Users\shevi\AppData\Local\Temp\cc7JCaEk.s 			page 15


 553              		.loc 1 190 0
 554 025e 254B     		ldr	r3, .L24
 555 0260 1B68     		ldr	r3, [r3]
 556 0262 07F11401 		add	r1, r7, #20
 557 0266 4022     		movs	r2, #64
 558 0268 1846     		mov	r0, r3
 559 026a FFF7FEFF 		bl	vSerialPutString
 191:main.c        ****                     LED_RED_Write(1);                    
 560              		.loc 1 191 0
 561 026e 0120     		movs	r0, #1
 562 0270 FFF7FEFF 		bl	LED_RED_Write
 563              	.L18:
 192:main.c        ****                 }
 193:main.c        ****                  if (type=='8' && isMaster){//TURN OFF LED_BLUE
 564              		.loc 1 193 0
 565 0274 97F91731 		ldrsb	r3, [r7, #279]
 566 0278 382B     		cmp	r3, #56
 567 027a 1BD1     		bne	.L19
 568              		.loc 1 193 0 is_stmt 0 discriminator 1
 569 027c 254B     		ldr	r3, .L24+32
 570 027e 1B68     		ldr	r3, [r3]
 571 0280 002B     		cmp	r3, #0
 572 0282 17D0     		beq	.L19
 194:main.c        ****                     sprintf((char *) local_write, "LED BLUE TURN OFF\n");
 573              		.loc 1 194 0 is_stmt 1
 574 0284 07F11403 		add	r3, r7, #20
 575 0288 294A     		ldr	r2, .L24+60
 576 028a 1C46     		mov	r4, r3
 577 028c 1546     		mov	r5, r2
 578 028e 0FCD     		ldmia	r5!, {r0, r1, r2, r3}
 579 0290 0FC4     		stmia	r4!, {r0, r1, r2, r3}
 580 0292 2B68     		ldr	r3, [r5]
 581 0294 1A46     		mov	r2, r3	@ movhi
 582 0296 2280     		strh	r2, [r4]	@ movhi
 583 0298 0234     		adds	r4, r4, #2
 584 029a 1B0C     		lsrs	r3, r3, #16
 585 029c 2370     		strb	r3, [r4]
 195:main.c        ****                     vSerialPutString(pxPort, (const signed char *) local_write, 64);
 586              		.loc 1 195 0
 587 029e 154B     		ldr	r3, .L24
 588 02a0 1B68     		ldr	r3, [r3]
 589 02a2 07F11401 		add	r1, r7, #20
 590 02a6 4022     		movs	r2, #64
 591 02a8 1846     		mov	r0, r3
 592 02aa FFF7FEFF 		bl	vSerialPutString
 196:main.c        ****                     LED_BLUE_Write(0);                    
 593              		.loc 1 196 0
 594 02ae 0020     		movs	r0, #0
 595 02b0 FFF7FEFF 		bl	LED_BLUE_Write
 596              	.L19:
 197:main.c        ****                 }
 198:main.c        ****                 if (type=='9' && isMaster){//TURN OFF LED_RED
 597              		.loc 1 198 0
 598 02b4 97F91731 		ldrsb	r3, [r7, #279]
 599 02b8 392B     		cmp	r3, #57
 600 02ba 17D1     		bne	.L20
 601              		.loc 1 198 0 is_stmt 0 discriminator 1
ARM GAS  C:\Users\shevi\AppData\Local\Temp\cc7JCaEk.s 			page 16


 602 02bc 154B     		ldr	r3, .L24+32
 603 02be 1B68     		ldr	r3, [r3]
 604 02c0 002B     		cmp	r3, #0
 605 02c2 13D0     		beq	.L20
 199:main.c        ****                     sprintf((char *) local_write, "LED RED TURN OFF\n");
 606              		.loc 1 199 0 is_stmt 1
 607 02c4 07F11403 		add	r3, r7, #20
 608 02c8 1A4A     		ldr	r2, .L24+64
 609 02ca 1C46     		mov	r4, r3
 610 02cc 1546     		mov	r5, r2
 611 02ce 0FCD     		ldmia	r5!, {r0, r1, r2, r3}
 612 02d0 0FC4     		stmia	r4!, {r0, r1, r2, r3}
 613 02d2 2B68     		ldr	r3, [r5]
 614 02d4 2380     		strh	r3, [r4]	@ movhi
 200:main.c        ****                     vSerialPutString(pxPort, (const signed char *) local_write, 64);
 615              		.loc 1 200 0
 616 02d6 074B     		ldr	r3, .L24
 617 02d8 1B68     		ldr	r3, [r3]
 618 02da 07F11401 		add	r1, r7, #20
 619 02de 4022     		movs	r2, #64
 620 02e0 1846     		mov	r0, r3
 621 02e2 FFF7FEFF 		bl	vSerialPutString
 201:main.c        ****                     LED_RED_Write(0);                    
 622              		.loc 1 201 0
 623 02e6 0020     		movs	r0, #0
 624 02e8 FFF7FEFF 		bl	LED_RED_Write
 625              	.L20:
 202:main.c        ****                 }
 203:main.c        ****                 for (i=0; i<65; i++) {
 626              		.loc 1 203 0
 627 02ec 0023     		movs	r3, #0
 628 02ee C7F81C31 		str	r3, [r7, #284]
 629 02f2 2CE0     		b	.L21
 630              	.L25:
 631              		.align	2
 632              	.L24:
 633 02f4 00000000 		.word	pxPort
 634 02f8 00000000 		.word	rx_receive
 635 02fc 00000000 		.word	gatekeeper
 636 0300 00000000 		.word	buffer
 637 0304 74000000 		.word	.LC5
 638 0308 00000000 		.word	right_wheel
 639 030c 00000000 		.word	left_wheel
 640 0310 88000000 		.word	.LC6
 641 0314 00000000 		.word	isMaster
 642 0318 A4000000 		.word	.LC7
 643 031c B0000000 		.word	.LC8
 644 0320 BC000000 		.word	.LC9
 645 0324 CC000000 		.word	.LC10
 646 0328 DC000000 		.word	.LC11
 647 032c F0000000 		.word	.LC12
 648 0330 04010000 		.word	.LC13
 649 0334 18010000 		.word	.LC14
 650              	.L22:
 204:main.c        ****                     buffer[i] = ' ';
 651              		.loc 1 204 0 discriminator 3
 652 0338 0F4A     		ldr	r2, .L26
ARM GAS  C:\Users\shevi\AppData\Local\Temp\cc7JCaEk.s 			page 17


 653 033a D7F81C31 		ldr	r3, [r7, #284]
 654 033e 1344     		add	r3, r3, r2
 655 0340 2022     		movs	r2, #32
 656 0342 1A70     		strb	r2, [r3]
 203:main.c        ****                     buffer[i] = ' ';
 657              		.loc 1 203 0 discriminator 3
 658 0344 D7F81C31 		ldr	r3, [r7, #284]
 659 0348 0133     		adds	r3, r3, #1
 660 034a C7F81C31 		str	r3, [r7, #284]
 661              	.L21:
 203:main.c        ****                     buffer[i] = ' ';
 662              		.loc 1 203 0 is_stmt 0 discriminator 1
 663 034e D7F81C31 		ldr	r3, [r7, #284]
 664 0352 402B     		cmp	r3, #64
 665 0354 F0DD     		ble	.L22
 205:main.c        ****                 }
 206:main.c        ****                 go = 0;
 666              		.loc 1 206 0 is_stmt 1
 667 0356 0023     		movs	r3, #0
 668 0358 C7F81831 		str	r3, [r7, #280]
 207:main.c        ****                 i = 0;
 669              		.loc 1 207 0
 670 035c 0023     		movs	r3, #0
 671 035e C7F81C31 		str	r3, [r7, #284]
 208:main.c        ****                 type=0;                   
 672              		.loc 1 208 0
 673 0362 0023     		movs	r3, #0
 674 0364 87F81731 		strb	r3, [r7, #279]
 209:main.c        ****                 xSemaphoreGive(gatekeeper);
 675              		.loc 1 209 0
 676 0368 044B     		ldr	r3, .L26+4
 677 036a 1868     		ldr	r0, [r3]
 678 036c 0023     		movs	r3, #0
 679 036e 0022     		movs	r2, #0
 680 0370 0021     		movs	r1, #0
 681 0372 FFF7FEFF 		bl	xQueueGenericSend
 210:main.c        ****             }
 211:main.c        ****         }
 212:main.c        ****     }
 682              		.loc 1 212 0
 683 0376 54E6     		b	.L23
 684              	.L27:
 685              		.align	2
 686              	.L26:
 687 0378 00000000 		.word	buffer
 688 037c 00000000 		.word	gatekeeper
 689              		.cfi_endproc
 690              	.LFE70:
 691              		.size	receive_data, .-receive_data
 692              		.section	.rodata
 693 012a 0000     		.align	2
 694              	.LC15:
 695 012c 6C656674 		.ascii	"left wheel inc: %li\012\000"
 695      20776865 
 695      656C2069 
 695      6E633A20 
 695      256C690A 
ARM GAS  C:\Users\shevi\AppData\Local\Temp\cc7JCaEk.s 			page 18


 696              		.section	.text.PID_initialise,"ax",%progbits
 697              		.align	2
 698              		.global	PID_initialise
 699              		.thumb
 700              		.thumb_func
 701              		.type	PID_initialise, %function
 702              	PID_initialise:
 703              	.LFB71:
 213:main.c        **** }
 214:main.c        **** 
 215:main.c        **** void PID_initialise( void *p ) {
 704              		.loc 1 215 0
 705              		.cfi_startproc
 706              		@ args = 0, pretend = 0, frame = 264
 707              		@ frame_needed = 1, uses_anonymous_args = 0
 708 0000 90B5     		push	{r4, r7, lr}
 709              		.cfi_def_cfa_offset 12
 710              		.cfi_offset 4, -12
 711              		.cfi_offset 7, -8
 712              		.cfi_offset 14, -4
 713 0002 C3B0     		sub	sp, sp, #268
 714              		.cfi_def_cfa_offset 280
 715 0004 00AF     		add	r7, sp, #0
 716              		.cfi_def_cfa_register 7
 717 0006 3B1D     		adds	r3, r7, #4
 718 0008 1860     		str	r0, [r3]
 216:main.c        ****     
 217:main.c        ****     p = NULL;
 719              		.loc 1 217 0
 720 000a 3B1D     		adds	r3, r7, #4
 721 000c 0022     		movs	r2, #0
 722 000e 1A60     		str	r2, [r3]
 218:main.c        ****         
 219:main.c        ****     initialise_wheel_data(&left_wheel);
 723              		.loc 1 219 0
 724 0010 2748     		ldr	r0, .L32
 725 0012 FFF7FEFF 		bl	initialise_wheel_data
 220:main.c        ****     initialise_wheel_data(&right_wheel);
 726              		.loc 1 220 0
 727 0016 2748     		ldr	r0, .L32+4
 728 0018 FFF7FEFF 		bl	initialise_wheel_data
 221:main.c        ****     
 222:main.c        ****     k.Kp = 40;
 729              		.loc 1 222 0
 730 001c 264A     		ldr	r2, .L32+8
 731 001e 4FF00003 		mov	r3, #0
 732 0022 264C     		ldr	r4, .L32+12
 733 0024 C2E90234 		strd	r3, [r2, #8]
 223:main.c        ****     k.Ki = 0;
 734              		.loc 1 223 0
 735 0028 234A     		ldr	r2, .L32+8
 736 002a 4FF00003 		mov	r3, #0
 737 002e 4FF00004 		mov	r4, #0
 738 0032 C2E90034 		strd	r3, [r2]
 224:main.c        ****     k.Kd = 20;
 739              		.loc 1 224 0
 740 0036 204A     		ldr	r2, .L32+8
ARM GAS  C:\Users\shevi\AppData\Local\Temp\cc7JCaEk.s 			page 19


 741 0038 4FF00003 		mov	r3, #0
 742 003c 204C     		ldr	r4, .L32+16
 743 003e C2E90434 		strd	r3, [r2, #16]
 744              	.L31:
 225:main.c        ****     
 226:main.c        ****     signed char *local_write[64];  
 227:main.c        ****     
 228:main.c        ****     while(1) {
 229:main.c        ****     	if(xSemaphoreTake(gatekeeper, 50000)) {              // wait until semaphore is free:
 745              		.loc 1 229 0
 746 0042 204B     		ldr	r3, .L32+20
 747 0044 1B68     		ldr	r3, [r3]
 748 0046 4CF25031 		movw	r1, #50000
 749 004a 1846     		mov	r0, r3
 750 004c FFF7FEFF 		bl	xQueueSemaphoreTake
 751 0050 0346     		mov	r3, r0
 752 0052 002B     		cmp	r3, #0
 753 0054 28D0     		beq	.L29
 230:main.c        ****             if (first_run==1){
 754              		.loc 1 230 0
 755 0056 1C4B     		ldr	r3, .L32+24
 756 0058 1B68     		ldr	r3, [r3]
 757 005a 012B     		cmp	r3, #1
 758 005c 08D1     		bne	.L30
 231:main.c        ****                 M1QuadDec_SetCounter(0);
 759              		.loc 1 231 0
 760 005e 0020     		movs	r0, #0
 761 0060 FFF7FEFF 		bl	M1QuadDec_SetCounter
 232:main.c        ****                 M2QuadDec_SetCounter(0);
 762              		.loc 1 232 0
 763 0064 0020     		movs	r0, #0
 764 0066 FFF7FEFF 		bl	M2QuadDec_SetCounter
 233:main.c        ****                 first_run=0;
 765              		.loc 1 233 0
 766 006a 174B     		ldr	r3, .L32+24
 767 006c 0022     		movs	r2, #0
 768 006e 1A60     		str	r2, [r3]
 769              	.L30:
 234:main.c        ****             }
 235:main.c        ****                 
 236:main.c        ****             mov_update_error(&left_wheel, &right_wheel);    // update error values
 770              		.loc 1 236 0
 771 0070 1049     		ldr	r1, .L32+4
 772 0072 0F48     		ldr	r0, .L32
 773 0074 FFF7FEFF 		bl	mov_update_error
 237:main.c        ****             sprintf((char *) local_write, "left wheel inc: %li\n", left_wheel.cur_dest);
 774              		.loc 1 237 0
 775 0078 0D4B     		ldr	r3, .L32
 776 007a 5A68     		ldr	r2, [r3, #4]
 777 007c 07F10803 		add	r3, r7, #8
 778 0080 1249     		ldr	r1, .L32+28
 779 0082 1846     		mov	r0, r3
 780 0084 FFF7FEFF 		bl	sprintf
 238:main.c        ****             //vSerialPutString(pxPort, (signed char *) local_write, 64);
 239:main.c        ****             mov_get_PID(&left_wheel, &right_wheel, &k);     // calculate wheel voltage from errors 
 781              		.loc 1 239 0
 782 0088 0B4A     		ldr	r2, .L32+8
ARM GAS  C:\Users\shevi\AppData\Local\Temp\cc7JCaEk.s 			page 20


 783 008a 0A49     		ldr	r1, .L32+4
 784 008c 0848     		ldr	r0, .L32
 785 008e FFF7FEFF 		bl	mov_get_PID
 240:main.c        ****             
 241:main.c        ****             mov_Adj_Volt(&left_wheel, &right_wheel);        // adjust the voltage of the wheels
 786              		.loc 1 241 0
 787 0092 0849     		ldr	r1, .L32+4
 788 0094 0648     		ldr	r0, .L32
 789 0096 FFF7FEFF 		bl	mov_Adj_Volt
 242:main.c        **** 			xSemaphoreGive(gatekeeper);                     // give the semaphore back
 790              		.loc 1 242 0
 791 009a 0A4B     		ldr	r3, .L32+20
 792 009c 1868     		ldr	r0, [r3]
 793 009e 0023     		movs	r3, #0
 794 00a0 0022     		movs	r2, #0
 795 00a2 0021     		movs	r1, #0
 796 00a4 FFF7FEFF 		bl	xQueueGenericSend
 797              	.L29:
 243:main.c        ****     	}
 244:main.c        ****         vTaskDelay(10);                                     // wait 10ms before going again
 798              		.loc 1 244 0
 799 00a8 0A20     		movs	r0, #10
 800 00aa FFF7FEFF 		bl	vTaskDelay
 245:main.c        ****     }
 801              		.loc 1 245 0
 802 00ae C8E7     		b	.L31
 803              	.L33:
 804              		.align	2
 805              	.L32:
 806 00b0 00000000 		.word	left_wheel
 807 00b4 00000000 		.word	right_wheel
 808 00b8 00000000 		.word	k
 809 00bc 00004440 		.word	1078198272
 810 00c0 00003440 		.word	1077149696
 811 00c4 00000000 		.word	gatekeeper
 812 00c8 00000000 		.word	first_run
 813 00cc 2C010000 		.word	.LC15
 814              		.cfi_endproc
 815              	.LFE71:
 816              		.size	PID_initialise, .-PID_initialise
 817              		.section	.text.prvHardwareSetup,"ax",%progbits
 818              		.align	2
 819              		.thumb
 820              		.thumb_func
 821              		.type	prvHardwareSetup, %function
 822              	prvHardwareSetup:
 823              	.LFB72:
 246:main.c        **** }
 247:main.c        **** 
 248:main.c        **** void prvHardwareSetup( void ) {
 824              		.loc 1 248 0
 825              		.cfi_startproc
 826              		@ args = 0, pretend = 0, frame = 0
 827              		@ frame_needed = 1, uses_anonymous_args = 0
 828 0000 80B5     		push	{r7, lr}
 829              		.cfi_def_cfa_offset 8
 830              		.cfi_offset 7, -8
ARM GAS  C:\Users\shevi\AppData\Local\Temp\cc7JCaEk.s 			page 21


 831              		.cfi_offset 14, -4
 832 0002 00AF     		add	r7, sp, #0
 833              		.cfi_def_cfa_register 7
 249:main.c        ****     
 250:main.c        ****     /* Port layer functions that need to be copied into the vector table. */
 251:main.c        ****     extern void xPortPendSVHandler( void );
 252:main.c        ****     extern void xPortSysTickHandler( void );
 253:main.c        ****     extern void vPortSVCHandler( void );
 254:main.c        ****     extern cyisraddress CyRamVectors[];
 255:main.c        **** 
 256:main.c        **** 	/* Install the OS Interrupt Handlers. */
 257:main.c        **** 	CyRamVectors[ 11 ] = ( cyisraddress ) vPortSVCHandler;
 834              		.loc 1 257 0
 835 0004 264B     		ldr	r3, .L38
 836 0006 274A     		ldr	r2, .L38+4
 837 0008 DA62     		str	r2, [r3, #44]
 258:main.c        **** 	CyRamVectors[ 14 ] = ( cyisraddress ) xPortPendSVHandler;
 838              		.loc 1 258 0
 839 000a 254B     		ldr	r3, .L38
 840 000c 264A     		ldr	r2, .L38+8
 841 000e 9A63     		str	r2, [r3, #56]
 259:main.c        **** 	CyRamVectors[ 15 ] = ( cyisraddress ) xPortSysTickHandler;
 842              		.loc 1 259 0
 843 0010 234B     		ldr	r3, .L38
 844 0012 264A     		ldr	r2, .L38+12
 845 0014 DA63     		str	r2, [r3, #60]
 260:main.c        **** 
 261:main.c        **** 	/* Start-up the shared peripherals. */
 262:main.c        ****     PWM_M1_Start();
 846              		.loc 1 262 0
 847 0016 FFF7FEFF 		bl	PWM_M1_Start
 263:main.c        ****     PWM_M2_Start();
 848              		.loc 1 263 0
 849 001a FFF7FEFF 		bl	PWM_M2_Start
 264:main.c        ****     M1Clock_Start();
 850              		.loc 1 264 0
 851 001e FFF7FEFF 		bl	M1Clock_Start
 265:main.c        ****     MClock_Start();
 852              		.loc 1 265 0
 853 0022 FFF7FEFF 		bl	MClock_Start
 266:main.c        ****     
 267:main.c        ****     M1QuadDec_Start();
 854              		.loc 1 267 0
 855 0026 FFF7FEFF 		bl	M1QuadDec_Start
 268:main.c        ****     M1QuadDec_Enable();
 856              		.loc 1 268 0
 857 002a FFF7FEFF 		bl	M1QuadDec_Enable
 269:main.c        ****     M1QuadDec_SetCounter(0);
 858              		.loc 1 269 0
 859 002e 0020     		movs	r0, #0
 860 0030 FFF7FEFF 		bl	M1QuadDec_SetCounter
 270:main.c        ****     
 271:main.c        ****     M2QuadDec_Start();
 861              		.loc 1 271 0
 862 0034 FFF7FEFF 		bl	M2QuadDec_Start
 272:main.c        ****     M2QuadDec_Enable();
 863              		.loc 1 272 0
ARM GAS  C:\Users\shevi\AppData\Local\Temp\cc7JCaEk.s 			page 22


 864 0038 FFF7FEFF 		bl	M2QuadDec_Enable
 273:main.c        ****     M2QuadDec_SetCounter(0);
 865              		.loc 1 273 0
 866 003c 0020     		movs	r0, #0
 867 003e FFF7FEFF 		bl	M2QuadDec_SetCounter
 274:main.c        **** 
 275:main.c        **** 	UART_1_Start();                         // Start the UART
 868              		.loc 1 275 0
 869 0042 FFF7FEFF 		bl	UART_1_Start
 276:main.c        ****     xSerialPortInitMinimal( 57600, 64 );    // Set the serial baud rate and buffer size in bytes
 870              		.loc 1 276 0
 871 0046 4021     		movs	r1, #64
 872 0048 4FF46140 		mov	r0, #57600
 873 004c FFF7FEFF 		bl	xSerialPortInitMinimal
 277:main.c        ****     
 278:main.c        ****     Timer_1_Start();
 874              		.loc 1 278 0
 875 0050 FFF7FEFF 		bl	Timer_1_Start
 279:main.c        **** 
 280:main.c        ****     /* Start up the master peripherals. */
 281:main.c        ****     if (isMaster==1){
 876              		.loc 1 281 0
 877 0054 164B     		ldr	r3, .L38+16
 878 0056 1B68     		ldr	r3, [r3]
 879 0058 012B     		cmp	r3, #1
 880 005a 0DD1     		bne	.L35
 282:main.c        ****         Clock_2_Start();
 881              		.loc 1 282 0
 882 005c FFF7FEFF 		bl	Clock_2_Start
 283:main.c        ****         PWM_2_Start();
 883              		.loc 1 283 0
 884 0060 FFF7FEFF 		bl	PWM_2_Start
 284:main.c        ****         PWM_2_WriteCompare(1850);//90 deg Camera;
 885              		.loc 1 284 0
 886 0064 40F23A70 		movw	r0, #1850
 887 0068 FFF7FEFF 		bl	PWM_2_WriteCompare
 285:main.c        ****         CyDelay(1000);
 888              		.loc 1 285 0
 889 006c 4FF47A70 		mov	r0, #1000
 890 0070 FFF7FEFF 		bl	CyDelay
 286:main.c        ****         PWM_2_Sleep();
 891              		.loc 1 286 0
 892 0074 FFF7FEFF 		bl	PWM_2_Sleep
 893              	.L35:
 287:main.c        ****     }
 288:main.c        ****     
 289:main.c        ****     /* Start up the slave peripherals. */
 290:main.c        ****     if (isMaster==0){
 894              		.loc 1 290 0
 895 0078 0D4B     		ldr	r3, .L38+16
 896 007a 1B68     		ldr	r3, [r3]
 897 007c 002B     		cmp	r3, #0
 898 007e 0DD1     		bne	.L37
 291:main.c        ****         
 292:main.c        ****         Clock_1_Start();
 899              		.loc 1 292 0
 900 0080 FFF7FEFF 		bl	Clock_1_Start
ARM GAS  C:\Users\shevi\AppData\Local\Temp\cc7JCaEk.s 			page 23


 293:main.c        ****         PWM_1_Start();
 901              		.loc 1 293 0
 902 0084 FFF7FEFF 		bl	PWM_1_Start
 294:main.c        ****         PWM_1_WriteCompare(2100);//90 deg Camera;
 903              		.loc 1 294 0
 904 0088 40F63400 		movw	r0, #2100
 905 008c FFF7FEFF 		bl	PWM_1_WriteCompare
 295:main.c        ****         CyDelay(1000);
 906              		.loc 1 295 0
 907 0090 4FF47A70 		mov	r0, #1000
 908 0094 FFF7FEFF 		bl	CyDelay
 296:main.c        ****         PWM_1_Sleep();
 909              		.loc 1 296 0
 910 0098 FFF7FEFF 		bl	PWM_1_Sleep
 911              	.L37:
 297:main.c        ****         
 298:main.c        ****         
 299:main.c        ****         
 300:main.c        ****     }
 301:main.c        **** }
 912              		.loc 1 301 0
 913 009c 00BF     		nop
 914 009e 80BD     		pop	{r7, pc}
 915              	.L39:
 916              		.align	2
 917              	.L38:
 918 00a0 00000000 		.word	CyRamVectors
 919 00a4 00000000 		.word	vPortSVCHandler
 920 00a8 00000000 		.word	xPortPendSVHandler
 921 00ac 00000000 		.word	xPortSysTickHandler
 922 00b0 00000000 		.word	isMaster
 923              		.cfi_endproc
 924              	.LFE72:
 925              		.size	prvHardwareSetup, .-prvHardwareSetup
 926              		.section	.text.vApplicationStackOverflowHook,"ax",%progbits
 927              		.align	2
 928              		.global	vApplicationStackOverflowHook
 929              		.thumb
 930              		.thumb_func
 931              		.type	vApplicationStackOverflowHook, %function
 932              	vApplicationStackOverflowHook:
 933              	.LFB73:
 302:main.c        **** 
 303:main.c        **** 
 304:main.c        **** // DON'T TOUCH THESE (PART OF FREERTOS)
 305:main.c        **** void vApplicationStackOverflowHook( TaskHandle_t pxTask, char *pcTaskName ) {
 934              		.loc 1 305 0
 935              		.cfi_startproc
 936              		@ args = 0, pretend = 0, frame = 16
 937              		@ frame_needed = 1, uses_anonymous_args = 0
 938              		@ link register save eliminated.
 939 0000 80B4     		push	{r7}
 940              		.cfi_def_cfa_offset 4
 941              		.cfi_offset 7, -4
 942 0002 85B0     		sub	sp, sp, #20
 943              		.cfi_def_cfa_offset 24
 944 0004 00AF     		add	r7, sp, #0
ARM GAS  C:\Users\shevi\AppData\Local\Temp\cc7JCaEk.s 			page 24


 945              		.cfi_def_cfa_register 7
 946 0006 7860     		str	r0, [r7, #4]
 947 0008 3960     		str	r1, [r7]
 948              	.LBB6:
 949              	.LBB7:
 950              		.file 2 "..\\..\\FreeRTOS_Source\\portable\\GCC\\ARM_CM3/portmacro.h"
   1:..\..\FreeRTOS_Source\portable\GCC\ARM_CM3/portmacro.h **** /*
   2:..\..\FreeRTOS_Source\portable\GCC\ARM_CM3/portmacro.h ****  * FreeRTOS Kernel V10.0.1
   3:..\..\FreeRTOS_Source\portable\GCC\ARM_CM3/portmacro.h ****  * Copyright (C) 2017 Amazon.com, Inc. or its affiliates.  All Rights Reserved.
   4:..\..\FreeRTOS_Source\portable\GCC\ARM_CM3/portmacro.h ****  *
   5:..\..\FreeRTOS_Source\portable\GCC\ARM_CM3/portmacro.h ****  * Permission is hereby granted, free of charge, to any person obtaining a copy of
   6:..\..\FreeRTOS_Source\portable\GCC\ARM_CM3/portmacro.h ****  * this software and associated documentation files (the "Software"), to deal in
   7:..\..\FreeRTOS_Source\portable\GCC\ARM_CM3/portmacro.h ****  * the Software without restriction, including without limitation the rights to
   8:..\..\FreeRTOS_Source\portable\GCC\ARM_CM3/portmacro.h ****  * use, copy, modify, merge, publish, distribute, sublicense, and/or sell copies of
   9:..\..\FreeRTOS_Source\portable\GCC\ARM_CM3/portmacro.h ****  * the Software, and to permit persons to whom the Software is furnished to do so,
  10:..\..\FreeRTOS_Source\portable\GCC\ARM_CM3/portmacro.h ****  * subject to the following conditions:
  11:..\..\FreeRTOS_Source\portable\GCC\ARM_CM3/portmacro.h ****  *
  12:..\..\FreeRTOS_Source\portable\GCC\ARM_CM3/portmacro.h ****  * The above copyright notice and this permission notice shall be included in all
  13:..\..\FreeRTOS_Source\portable\GCC\ARM_CM3/portmacro.h ****  * copies or substantial portions of the Software.
  14:..\..\FreeRTOS_Source\portable\GCC\ARM_CM3/portmacro.h ****  *
  15:..\..\FreeRTOS_Source\portable\GCC\ARM_CM3/portmacro.h ****  * THE SOFTWARE IS PROVIDED "AS IS", WITHOUT WARRANTY OF ANY KIND, EXPRESS OR
  16:..\..\FreeRTOS_Source\portable\GCC\ARM_CM3/portmacro.h ****  * IMPLIED, INCLUDING BUT NOT LIMITED TO THE WARRANTIES OF MERCHANTABILITY, FITNESS
  17:..\..\FreeRTOS_Source\portable\GCC\ARM_CM3/portmacro.h ****  * FOR A PARTICULAR PURPOSE AND NONINFRINGEMENT. IN NO EVENT SHALL THE AUTHORS OR
  18:..\..\FreeRTOS_Source\portable\GCC\ARM_CM3/portmacro.h ****  * COPYRIGHT HOLDERS BE LIABLE FOR ANY CLAIM, DAMAGES OR OTHER LIABILITY, WHETHER
  19:..\..\FreeRTOS_Source\portable\GCC\ARM_CM3/portmacro.h ****  * IN AN ACTION OF CONTRACT, TORT OR OTHERWISE, ARISING FROM, OUT OF OR IN
  20:..\..\FreeRTOS_Source\portable\GCC\ARM_CM3/portmacro.h ****  * CONNECTION WITH THE SOFTWARE OR THE USE OR OTHER DEALINGS IN THE SOFTWARE.
  21:..\..\FreeRTOS_Source\portable\GCC\ARM_CM3/portmacro.h ****  *
  22:..\..\FreeRTOS_Source\portable\GCC\ARM_CM3/portmacro.h ****  * http://www.FreeRTOS.org
  23:..\..\FreeRTOS_Source\portable\GCC\ARM_CM3/portmacro.h ****  * http://aws.amazon.com/freertos
  24:..\..\FreeRTOS_Source\portable\GCC\ARM_CM3/portmacro.h ****  *
  25:..\..\FreeRTOS_Source\portable\GCC\ARM_CM3/portmacro.h ****  * 1 tab == 4 spaces!
  26:..\..\FreeRTOS_Source\portable\GCC\ARM_CM3/portmacro.h ****  */
  27:..\..\FreeRTOS_Source\portable\GCC\ARM_CM3/portmacro.h **** 
  28:..\..\FreeRTOS_Source\portable\GCC\ARM_CM3/portmacro.h **** 
  29:..\..\FreeRTOS_Source\portable\GCC\ARM_CM3/portmacro.h **** #ifndef PORTMACRO_H
  30:..\..\FreeRTOS_Source\portable\GCC\ARM_CM3/portmacro.h **** #define PORTMACRO_H
  31:..\..\FreeRTOS_Source\portable\GCC\ARM_CM3/portmacro.h **** 
  32:..\..\FreeRTOS_Source\portable\GCC\ARM_CM3/portmacro.h **** #ifdef __cplusplus
  33:..\..\FreeRTOS_Source\portable\GCC\ARM_CM3/portmacro.h **** extern "C" {
  34:..\..\FreeRTOS_Source\portable\GCC\ARM_CM3/portmacro.h **** #endif
  35:..\..\FreeRTOS_Source\portable\GCC\ARM_CM3/portmacro.h **** 
  36:..\..\FreeRTOS_Source\portable\GCC\ARM_CM3/portmacro.h **** /*-----------------------------------------------------------
  37:..\..\FreeRTOS_Source\portable\GCC\ARM_CM3/portmacro.h ****  * Port specific definitions.
  38:..\..\FreeRTOS_Source\portable\GCC\ARM_CM3/portmacro.h ****  *
  39:..\..\FreeRTOS_Source\portable\GCC\ARM_CM3/portmacro.h ****  * The settings in this file configure FreeRTOS correctly for the
  40:..\..\FreeRTOS_Source\portable\GCC\ARM_CM3/portmacro.h ****  * given hardware and compiler.
  41:..\..\FreeRTOS_Source\portable\GCC\ARM_CM3/portmacro.h ****  *
  42:..\..\FreeRTOS_Source\portable\GCC\ARM_CM3/portmacro.h ****  * These settings should not be altered.
  43:..\..\FreeRTOS_Source\portable\GCC\ARM_CM3/portmacro.h ****  *-----------------------------------------------------------
  44:..\..\FreeRTOS_Source\portable\GCC\ARM_CM3/portmacro.h ****  */
  45:..\..\FreeRTOS_Source\portable\GCC\ARM_CM3/portmacro.h **** 
  46:..\..\FreeRTOS_Source\portable\GCC\ARM_CM3/portmacro.h **** /* Type definitions. */
  47:..\..\FreeRTOS_Source\portable\GCC\ARM_CM3/portmacro.h **** #define portCHAR		char
  48:..\..\FreeRTOS_Source\portable\GCC\ARM_CM3/portmacro.h **** #define portFLOAT		float
  49:..\..\FreeRTOS_Source\portable\GCC\ARM_CM3/portmacro.h **** #define portDOUBLE		double
  50:..\..\FreeRTOS_Source\portable\GCC\ARM_CM3/portmacro.h **** #define portLONG		long
  51:..\..\FreeRTOS_Source\portable\GCC\ARM_CM3/portmacro.h **** #define portSHORT		short
ARM GAS  C:\Users\shevi\AppData\Local\Temp\cc7JCaEk.s 			page 25


  52:..\..\FreeRTOS_Source\portable\GCC\ARM_CM3/portmacro.h **** #define portSTACK_TYPE	uint32_t
  53:..\..\FreeRTOS_Source\portable\GCC\ARM_CM3/portmacro.h **** #define portBASE_TYPE	long
  54:..\..\FreeRTOS_Source\portable\GCC\ARM_CM3/portmacro.h **** 
  55:..\..\FreeRTOS_Source\portable\GCC\ARM_CM3/portmacro.h **** typedef portSTACK_TYPE StackType_t;
  56:..\..\FreeRTOS_Source\portable\GCC\ARM_CM3/portmacro.h **** typedef long BaseType_t;
  57:..\..\FreeRTOS_Source\portable\GCC\ARM_CM3/portmacro.h **** typedef unsigned long UBaseType_t;
  58:..\..\FreeRTOS_Source\portable\GCC\ARM_CM3/portmacro.h **** 
  59:..\..\FreeRTOS_Source\portable\GCC\ARM_CM3/portmacro.h **** #if( configUSE_16_BIT_TICKS == 1 )
  60:..\..\FreeRTOS_Source\portable\GCC\ARM_CM3/portmacro.h **** 	typedef uint16_t TickType_t;
  61:..\..\FreeRTOS_Source\portable\GCC\ARM_CM3/portmacro.h **** 	#define portMAX_DELAY ( TickType_t ) 0xffff
  62:..\..\FreeRTOS_Source\portable\GCC\ARM_CM3/portmacro.h **** #else
  63:..\..\FreeRTOS_Source\portable\GCC\ARM_CM3/portmacro.h **** 	typedef uint32_t TickType_t;
  64:..\..\FreeRTOS_Source\portable\GCC\ARM_CM3/portmacro.h **** 	#define portMAX_DELAY ( TickType_t ) 0xffffffffUL
  65:..\..\FreeRTOS_Source\portable\GCC\ARM_CM3/portmacro.h **** 
  66:..\..\FreeRTOS_Source\portable\GCC\ARM_CM3/portmacro.h **** 	/* 32-bit tick type on a 32-bit architecture, so reads of the tick count do
  67:..\..\FreeRTOS_Source\portable\GCC\ARM_CM3/portmacro.h **** 	not need to be guarded with a critical section. */
  68:..\..\FreeRTOS_Source\portable\GCC\ARM_CM3/portmacro.h **** 	#define portTICK_TYPE_IS_ATOMIC 1
  69:..\..\FreeRTOS_Source\portable\GCC\ARM_CM3/portmacro.h **** #endif
  70:..\..\FreeRTOS_Source\portable\GCC\ARM_CM3/portmacro.h **** /*-----------------------------------------------------------*/
  71:..\..\FreeRTOS_Source\portable\GCC\ARM_CM3/portmacro.h **** 
  72:..\..\FreeRTOS_Source\portable\GCC\ARM_CM3/portmacro.h **** /* Architecture specifics. */
  73:..\..\FreeRTOS_Source\portable\GCC\ARM_CM3/portmacro.h **** #define portSTACK_GROWTH			( -1 )
  74:..\..\FreeRTOS_Source\portable\GCC\ARM_CM3/portmacro.h **** #define portTICK_PERIOD_MS			( ( TickType_t ) 1000 / configTICK_RATE_HZ )
  75:..\..\FreeRTOS_Source\portable\GCC\ARM_CM3/portmacro.h **** #define portBYTE_ALIGNMENT			8
  76:..\..\FreeRTOS_Source\portable\GCC\ARM_CM3/portmacro.h **** /*-----------------------------------------------------------*/
  77:..\..\FreeRTOS_Source\portable\GCC\ARM_CM3/portmacro.h **** 
  78:..\..\FreeRTOS_Source\portable\GCC\ARM_CM3/portmacro.h **** /* Scheduler utilities. */
  79:..\..\FreeRTOS_Source\portable\GCC\ARM_CM3/portmacro.h **** #define portYIELD() 															\
  80:..\..\FreeRTOS_Source\portable\GCC\ARM_CM3/portmacro.h **** {																				\
  81:..\..\FreeRTOS_Source\portable\GCC\ARM_CM3/portmacro.h **** 	/* Set a PendSV to request a context switch. */								\
  82:..\..\FreeRTOS_Source\portable\GCC\ARM_CM3/portmacro.h **** 	portNVIC_INT_CTRL_REG = portNVIC_PENDSVSET_BIT;								\
  83:..\..\FreeRTOS_Source\portable\GCC\ARM_CM3/portmacro.h **** 																				\
  84:..\..\FreeRTOS_Source\portable\GCC\ARM_CM3/portmacro.h **** 	/* Barriers are normally not required but do ensure the code is completely	\
  85:..\..\FreeRTOS_Source\portable\GCC\ARM_CM3/portmacro.h **** 	within the specified behaviour for the architecture. */						\
  86:..\..\FreeRTOS_Source\portable\GCC\ARM_CM3/portmacro.h **** 	__asm volatile( "dsb" ::: "memory" );										\
  87:..\..\FreeRTOS_Source\portable\GCC\ARM_CM3/portmacro.h **** 	__asm volatile( "isb" );													\
  88:..\..\FreeRTOS_Source\portable\GCC\ARM_CM3/portmacro.h **** }
  89:..\..\FreeRTOS_Source\portable\GCC\ARM_CM3/portmacro.h **** 
  90:..\..\FreeRTOS_Source\portable\GCC\ARM_CM3/portmacro.h **** #define portNVIC_INT_CTRL_REG		( * ( ( volatile uint32_t * ) 0xe000ed04 ) )
  91:..\..\FreeRTOS_Source\portable\GCC\ARM_CM3/portmacro.h **** #define portNVIC_PENDSVSET_BIT		( 1UL << 28UL )
  92:..\..\FreeRTOS_Source\portable\GCC\ARM_CM3/portmacro.h **** #define portEND_SWITCHING_ISR( xSwitchRequired ) if( xSwitchRequired != pdFALSE ) portYIELD()
  93:..\..\FreeRTOS_Source\portable\GCC\ARM_CM3/portmacro.h **** #define portYIELD_FROM_ISR( x ) portEND_SWITCHING_ISR( x )
  94:..\..\FreeRTOS_Source\portable\GCC\ARM_CM3/portmacro.h **** /*-----------------------------------------------------------*/
  95:..\..\FreeRTOS_Source\portable\GCC\ARM_CM3/portmacro.h **** 
  96:..\..\FreeRTOS_Source\portable\GCC\ARM_CM3/portmacro.h **** /* Critical section management. */
  97:..\..\FreeRTOS_Source\portable\GCC\ARM_CM3/portmacro.h **** extern void vPortEnterCritical( void );
  98:..\..\FreeRTOS_Source\portable\GCC\ARM_CM3/portmacro.h **** extern void vPortExitCritical( void );
  99:..\..\FreeRTOS_Source\portable\GCC\ARM_CM3/portmacro.h **** #define portSET_INTERRUPT_MASK_FROM_ISR()		ulPortRaiseBASEPRI()
 100:..\..\FreeRTOS_Source\portable\GCC\ARM_CM3/portmacro.h **** #define portCLEAR_INTERRUPT_MASK_FROM_ISR(x)	vPortSetBASEPRI(x)
 101:..\..\FreeRTOS_Source\portable\GCC\ARM_CM3/portmacro.h **** #define portDISABLE_INTERRUPTS()				vPortRaiseBASEPRI()
 102:..\..\FreeRTOS_Source\portable\GCC\ARM_CM3/portmacro.h **** #define portENABLE_INTERRUPTS()					vPortSetBASEPRI(0)
 103:..\..\FreeRTOS_Source\portable\GCC\ARM_CM3/portmacro.h **** #define portENTER_CRITICAL()					vPortEnterCritical()
 104:..\..\FreeRTOS_Source\portable\GCC\ARM_CM3/portmacro.h **** #define portEXIT_CRITICAL()						vPortExitCritical()
 105:..\..\FreeRTOS_Source\portable\GCC\ARM_CM3/portmacro.h **** 
 106:..\..\FreeRTOS_Source\portable\GCC\ARM_CM3/portmacro.h **** /*-----------------------------------------------------------*/
 107:..\..\FreeRTOS_Source\portable\GCC\ARM_CM3/portmacro.h **** 
 108:..\..\FreeRTOS_Source\portable\GCC\ARM_CM3/portmacro.h **** /* Task function macros as described on the FreeRTOS.org WEB site.  These are
ARM GAS  C:\Users\shevi\AppData\Local\Temp\cc7JCaEk.s 			page 26


 109:..\..\FreeRTOS_Source\portable\GCC\ARM_CM3/portmacro.h **** not necessary for to use this port.  They are defined so the common demo files
 110:..\..\FreeRTOS_Source\portable\GCC\ARM_CM3/portmacro.h **** (which build with all the ports) will build. */
 111:..\..\FreeRTOS_Source\portable\GCC\ARM_CM3/portmacro.h **** #define portTASK_FUNCTION_PROTO( vFunction, pvParameters ) void vFunction( void *pvParameters )
 112:..\..\FreeRTOS_Source\portable\GCC\ARM_CM3/portmacro.h **** #define portTASK_FUNCTION( vFunction, pvParameters ) void vFunction( void *pvParameters )
 113:..\..\FreeRTOS_Source\portable\GCC\ARM_CM3/portmacro.h **** /*-----------------------------------------------------------*/
 114:..\..\FreeRTOS_Source\portable\GCC\ARM_CM3/portmacro.h **** 
 115:..\..\FreeRTOS_Source\portable\GCC\ARM_CM3/portmacro.h **** /* Tickless idle/low power functionality. */
 116:..\..\FreeRTOS_Source\portable\GCC\ARM_CM3/portmacro.h **** #ifndef portSUPPRESS_TICKS_AND_SLEEP
 117:..\..\FreeRTOS_Source\portable\GCC\ARM_CM3/portmacro.h **** 	extern void vPortSuppressTicksAndSleep( TickType_t xExpectedIdleTime );
 118:..\..\FreeRTOS_Source\portable\GCC\ARM_CM3/portmacro.h **** 	#define portSUPPRESS_TICKS_AND_SLEEP( xExpectedIdleTime ) vPortSuppressTicksAndSleep( xExpectedIdl
 119:..\..\FreeRTOS_Source\portable\GCC\ARM_CM3/portmacro.h **** #endif
 120:..\..\FreeRTOS_Source\portable\GCC\ARM_CM3/portmacro.h **** /*-----------------------------------------------------------*/
 121:..\..\FreeRTOS_Source\portable\GCC\ARM_CM3/portmacro.h **** 
 122:..\..\FreeRTOS_Source\portable\GCC\ARM_CM3/portmacro.h **** /* Architecture specific optimisations. */
 123:..\..\FreeRTOS_Source\portable\GCC\ARM_CM3/portmacro.h **** #ifndef configUSE_PORT_OPTIMISED_TASK_SELECTION
 124:..\..\FreeRTOS_Source\portable\GCC\ARM_CM3/portmacro.h **** 	#define configUSE_PORT_OPTIMISED_TASK_SELECTION 1
 125:..\..\FreeRTOS_Source\portable\GCC\ARM_CM3/portmacro.h **** #endif
 126:..\..\FreeRTOS_Source\portable\GCC\ARM_CM3/portmacro.h **** 
 127:..\..\FreeRTOS_Source\portable\GCC\ARM_CM3/portmacro.h **** #if configUSE_PORT_OPTIMISED_TASK_SELECTION == 1
 128:..\..\FreeRTOS_Source\portable\GCC\ARM_CM3/portmacro.h **** 
 129:..\..\FreeRTOS_Source\portable\GCC\ARM_CM3/portmacro.h **** 	/* Generic helper function. */
 130:..\..\FreeRTOS_Source\portable\GCC\ARM_CM3/portmacro.h **** 	__attribute__( ( always_inline ) ) static inline uint8_t ucPortCountLeadingZeros( uint32_t ulBitma
 131:..\..\FreeRTOS_Source\portable\GCC\ARM_CM3/portmacro.h **** 	{
 132:..\..\FreeRTOS_Source\portable\GCC\ARM_CM3/portmacro.h **** 	uint8_t ucReturn;
 133:..\..\FreeRTOS_Source\portable\GCC\ARM_CM3/portmacro.h **** 
 134:..\..\FreeRTOS_Source\portable\GCC\ARM_CM3/portmacro.h **** 		__asm volatile ( "clz %0, %1" : "=r" ( ucReturn ) : "r" ( ulBitmap ) : "memory" );
 135:..\..\FreeRTOS_Source\portable\GCC\ARM_CM3/portmacro.h **** 		return ucReturn;
 136:..\..\FreeRTOS_Source\portable\GCC\ARM_CM3/portmacro.h **** 	}
 137:..\..\FreeRTOS_Source\portable\GCC\ARM_CM3/portmacro.h **** 
 138:..\..\FreeRTOS_Source\portable\GCC\ARM_CM3/portmacro.h **** 	/* Check the configuration. */
 139:..\..\FreeRTOS_Source\portable\GCC\ARM_CM3/portmacro.h **** 	#if( configMAX_PRIORITIES > 32 )
 140:..\..\FreeRTOS_Source\portable\GCC\ARM_CM3/portmacro.h **** 		#error configUSE_PORT_OPTIMISED_TASK_SELECTION can only be set to 1 when configMAX_PRIORITIES is 
 141:..\..\FreeRTOS_Source\portable\GCC\ARM_CM3/portmacro.h **** 	#endif
 142:..\..\FreeRTOS_Source\portable\GCC\ARM_CM3/portmacro.h **** 
 143:..\..\FreeRTOS_Source\portable\GCC\ARM_CM3/portmacro.h **** 	/* Store/clear the ready priorities in a bit map. */
 144:..\..\FreeRTOS_Source\portable\GCC\ARM_CM3/portmacro.h **** 	#define portRECORD_READY_PRIORITY( uxPriority, uxReadyPriorities ) ( uxReadyPriorities ) |= ( 1UL 
 145:..\..\FreeRTOS_Source\portable\GCC\ARM_CM3/portmacro.h **** 	#define portRESET_READY_PRIORITY( uxPriority, uxReadyPriorities ) ( uxReadyPriorities ) &= ~( 1UL 
 146:..\..\FreeRTOS_Source\portable\GCC\ARM_CM3/portmacro.h **** 
 147:..\..\FreeRTOS_Source\portable\GCC\ARM_CM3/portmacro.h **** 	/*-----------------------------------------------------------*/
 148:..\..\FreeRTOS_Source\portable\GCC\ARM_CM3/portmacro.h **** 
 149:..\..\FreeRTOS_Source\portable\GCC\ARM_CM3/portmacro.h **** 	#define portGET_HIGHEST_PRIORITY( uxTopPriority, uxReadyPriorities ) uxTopPriority = ( 31UL - ( ui
 150:..\..\FreeRTOS_Source\portable\GCC\ARM_CM3/portmacro.h **** 
 151:..\..\FreeRTOS_Source\portable\GCC\ARM_CM3/portmacro.h **** #endif /* configUSE_PORT_OPTIMISED_TASK_SELECTION */
 152:..\..\FreeRTOS_Source\portable\GCC\ARM_CM3/portmacro.h **** 
 153:..\..\FreeRTOS_Source\portable\GCC\ARM_CM3/portmacro.h **** /*-----------------------------------------------------------*/
 154:..\..\FreeRTOS_Source\portable\GCC\ARM_CM3/portmacro.h **** 
 155:..\..\FreeRTOS_Source\portable\GCC\ARM_CM3/portmacro.h **** #ifdef configASSERT
 156:..\..\FreeRTOS_Source\portable\GCC\ARM_CM3/portmacro.h **** 	void vPortValidateInterruptPriority( void );
 157:..\..\FreeRTOS_Source\portable\GCC\ARM_CM3/portmacro.h **** 	#define portASSERT_IF_INTERRUPT_PRIORITY_INVALID() 	vPortValidateInterruptPriority()
 158:..\..\FreeRTOS_Source\portable\GCC\ARM_CM3/portmacro.h **** #endif
 159:..\..\FreeRTOS_Source\portable\GCC\ARM_CM3/portmacro.h **** 
 160:..\..\FreeRTOS_Source\portable\GCC\ARM_CM3/portmacro.h **** /* portNOP() is not required by this port. */
 161:..\..\FreeRTOS_Source\portable\GCC\ARM_CM3/portmacro.h **** #define portNOP()
 162:..\..\FreeRTOS_Source\portable\GCC\ARM_CM3/portmacro.h **** 
 163:..\..\FreeRTOS_Source\portable\GCC\ARM_CM3/portmacro.h **** #define portINLINE	__inline
 164:..\..\FreeRTOS_Source\portable\GCC\ARM_CM3/portmacro.h **** 
 165:..\..\FreeRTOS_Source\portable\GCC\ARM_CM3/portmacro.h **** #ifndef portFORCE_INLINE
ARM GAS  C:\Users\shevi\AppData\Local\Temp\cc7JCaEk.s 			page 27


 166:..\..\FreeRTOS_Source\portable\GCC\ARM_CM3/portmacro.h **** 	#define portFORCE_INLINE inline __attribute__(( always_inline))
 167:..\..\FreeRTOS_Source\portable\GCC\ARM_CM3/portmacro.h **** #endif
 168:..\..\FreeRTOS_Source\portable\GCC\ARM_CM3/portmacro.h **** 
 169:..\..\FreeRTOS_Source\portable\GCC\ARM_CM3/portmacro.h **** portFORCE_INLINE static BaseType_t xPortIsInsideInterrupt( void )
 170:..\..\FreeRTOS_Source\portable\GCC\ARM_CM3/portmacro.h **** {
 171:..\..\FreeRTOS_Source\portable\GCC\ARM_CM3/portmacro.h **** uint32_t ulCurrentInterrupt;
 172:..\..\FreeRTOS_Source\portable\GCC\ARM_CM3/portmacro.h **** BaseType_t xReturn;
 173:..\..\FreeRTOS_Source\portable\GCC\ARM_CM3/portmacro.h **** 
 174:..\..\FreeRTOS_Source\portable\GCC\ARM_CM3/portmacro.h **** 	/* Obtain the number of the currently executing interrupt. */
 175:..\..\FreeRTOS_Source\portable\GCC\ARM_CM3/portmacro.h **** 	__asm volatile( "mrs %0, ipsr" : "=r"( ulCurrentInterrupt ) :: "memory" );
 176:..\..\FreeRTOS_Source\portable\GCC\ARM_CM3/portmacro.h **** 
 177:..\..\FreeRTOS_Source\portable\GCC\ARM_CM3/portmacro.h **** 	if( ulCurrentInterrupt == 0 )
 178:..\..\FreeRTOS_Source\portable\GCC\ARM_CM3/portmacro.h **** 	{
 179:..\..\FreeRTOS_Source\portable\GCC\ARM_CM3/portmacro.h **** 		xReturn = pdFALSE;
 180:..\..\FreeRTOS_Source\portable\GCC\ARM_CM3/portmacro.h **** 	}
 181:..\..\FreeRTOS_Source\portable\GCC\ARM_CM3/portmacro.h **** 	else
 182:..\..\FreeRTOS_Source\portable\GCC\ARM_CM3/portmacro.h **** 	{
 183:..\..\FreeRTOS_Source\portable\GCC\ARM_CM3/portmacro.h **** 		xReturn = pdTRUE;
 184:..\..\FreeRTOS_Source\portable\GCC\ARM_CM3/portmacro.h **** 	}
 185:..\..\FreeRTOS_Source\portable\GCC\ARM_CM3/portmacro.h **** 
 186:..\..\FreeRTOS_Source\portable\GCC\ARM_CM3/portmacro.h **** 	return xReturn;
 187:..\..\FreeRTOS_Source\portable\GCC\ARM_CM3/portmacro.h **** }
 188:..\..\FreeRTOS_Source\portable\GCC\ARM_CM3/portmacro.h **** 
 189:..\..\FreeRTOS_Source\portable\GCC\ARM_CM3/portmacro.h **** /*-----------------------------------------------------------*/
 190:..\..\FreeRTOS_Source\portable\GCC\ARM_CM3/portmacro.h **** 
 191:..\..\FreeRTOS_Source\portable\GCC\ARM_CM3/portmacro.h **** portFORCE_INLINE static void vPortRaiseBASEPRI( void )
 192:..\..\FreeRTOS_Source\portable\GCC\ARM_CM3/portmacro.h **** {
 193:..\..\FreeRTOS_Source\portable\GCC\ARM_CM3/portmacro.h **** uint32_t ulNewBASEPRI;
 194:..\..\FreeRTOS_Source\portable\GCC\ARM_CM3/portmacro.h **** 
 195:..\..\FreeRTOS_Source\portable\GCC\ARM_CM3/portmacro.h **** 	__asm volatile
 951              		.loc 2 195 0
 952              		.syntax unified
 953              	@ 195 "..\..\FreeRTOS_Source\portable\GCC\ARM_CM3/portmacro.h" 1
 954 000a 4FF0A003 			mov r3, #160												
 955 000e 83F31188 		msr basepri, r3											
 956 0012 BFF36F8F 		isb														
 957 0016 BFF34F8F 		dsb														
 958              	
 959              	@ 0 "" 2
 960              		.thumb
 961              		.syntax unified
 962 001a FB60     		str	r3, [r7, #12]
 963              	.L41:
 964              	.LBE7:
 965              	.LBE6:
 306:main.c        **** 	/* The stack space has been execeeded for a task, considering allocating more. */
 307:main.c        **** 	taskDISABLE_INTERRUPTS();
 308:main.c        **** 	for( ;; );
 966              		.loc 1 308 0 discriminator 1
 967 001c FEE7     		b	.L41
 968              		.cfi_endproc
 969              	.LFE73:
 970              		.size	vApplicationStackOverflowHook, .-vApplicationStackOverflowHook
 971 001e 00BF     		.section	.text.vApplicationMallocFailedHook,"ax",%progbits
 972              		.align	2
 973              		.global	vApplicationMallocFailedHook
 974              		.thumb
ARM GAS  C:\Users\shevi\AppData\Local\Temp\cc7JCaEk.s 			page 28


 975              		.thumb_func
 976              		.type	vApplicationMallocFailedHook, %function
 977              	vApplicationMallocFailedHook:
 978              	.LFB74:
 309:main.c        **** }
 310:main.c        **** void vApplicationMallocFailedHook( void ) {
 979              		.loc 1 310 0
 980              		.cfi_startproc
 981              		@ args = 0, pretend = 0, frame = 8
 982              		@ frame_needed = 1, uses_anonymous_args = 0
 983              		@ link register save eliminated.
 984 0000 80B4     		push	{r7}
 985              		.cfi_def_cfa_offset 4
 986              		.cfi_offset 7, -4
 987 0002 83B0     		sub	sp, sp, #12
 988              		.cfi_def_cfa_offset 16
 989 0004 00AF     		add	r7, sp, #0
 990              		.cfi_def_cfa_register 7
 991              	.LBB8:
 992              	.LBB9:
 993              		.loc 2 195 0
 994              		.syntax unified
 995              	@ 195 "..\..\FreeRTOS_Source\portable\GCC\ARM_CM3/portmacro.h" 1
 996 0006 4FF0A003 			mov r3, #160												
 997 000a 83F31188 		msr basepri, r3											
 998 000e BFF36F8F 		isb														
 999 0012 BFF34F8F 		dsb														
 1000              	
 1001              	@ 0 "" 2
 1002              		.thumb
 1003              		.syntax unified
 1004 0016 7B60     		str	r3, [r7, #4]
 1005              	.L43:
 1006              	.LBE9:
 1007              	.LBE8:
 311:main.c        **** 	/* The heap space has been execeeded. */
 312:main.c        **** 	taskDISABLE_INTERRUPTS();
 313:main.c        **** 	for( ;; );
 1008              		.loc 1 313 0 discriminator 1
 1009 0018 FEE7     		b	.L43
 1010              		.cfi_endproc
 1011              	.LFE74:
 1012              		.size	vApplicationMallocFailedHook, .-vApplicationMallocFailedHook
 1013 001a 00BF     		.text
 1014              	.Letext0:
 1015              		.file 3 "c:\\program files (x86)\\cypress\\psoc creator\\4.1\\psoc creator\\import\\gnu\\arm\\5.4.
 1016              		.file 4 "c:\\program files (x86)\\cypress\\psoc creator\\4.1\\psoc creator\\import\\gnu\\arm\\5.4.
 1017              		.file 5 "Generated_Source\\PSoC5/cytypes.h"
 1018              		.file 6 "..\\..\\FreeRTOS_Source\\include/task.h"
 1019              		.file 7 "..\\..\\FreeRTOS_Source\\include/queue.h"
 1020              		.file 8 "..\\..\\FreeRTOS_Source\\include/semphr.h"
 1021              		.file 9 "..\\..\\FreeRTOS_Source\\include/serial.h"
 1022              		.file 10 "movement.h"
 1023              		.file 11 "Generated_Source\\PSoC5/core_cm3.h"